(lp0
S'/home/srwe/work/project/backstage/apks/com.AnatomyLearning.Anatomy3DViewer3_v1.0'
p1
aS'/home/srwe/work/project/backstage/apks/de.blitzer_v2.7.4'
p2
aS'/home/srwe/work/project/backstage/apks/com.rtli.clipfish_v3.2'
p3
aS'/home/srwe/work/project/backstage/apks/com.surpax.ledflashlight.panel'
p4
aS'/home/srwe/work/project/backstage/apks/media.music.musicplayer.mp3player'
p5
aS'/home/srwe/work/project/backstage/apks/com.dianxinos.dxbs_v3.8.5'
p6
aS'/home/srwe/work/project/backstage/apks/us.porrassoft.xray_v6.0'
p7
aS'/home/srwe/work/project/backstage/apks/saschpe.contactevents_160160'
p8
aS'/home/srwe/work/project/backstage/apks/de.aid.nuetzlinge'
p9
aS'/home/srwe/work/project/backstage/apks/de.bfv.android'
p10
aS'/home/srwe/work/project/backstage/apks/subsembly.banking.starter_v5.2.1.5254'
p11
aS'/home/srwe/work/project/backstage/apks/si.sis.myscansfree_v1.2.7'
p12
aS'/home/srwe/work/project/backstage/apks/com.jb.zcamera'
p13
aS'/home/srwe/work/project/backstage/apks/de.wortundbildverlag.mobil.apotheke_v5.1.1'
p14
aS'/home/srwe/work/project/backstage/apks/org.leo.android.dict_v5.3'
p15
aS'/home/srwe/work/project/backstage/apks/de.dfbmedien.FussballDE'
p16
aS'/home/srwe/work/project/backstage/apks/com.bookmark.money_vandroid-2.3.1'
p17
aS'/home/srwe/work/project/backstage/apks/com.github.axet.callrecorder_87'
p18
aS'/home/srwe/work/project/backstage/apks/com.google.android.keep_v2.3.02'
p19
aS'/home/srwe/work/project/backstage/apks/com.gau.go.launcherex.gowidget.weatherwidget'
p20
aS'/home/srwe/work/project/backstage/apks/com.liwenwen20131497.christmas_v2.1'
p21
aS'/home/srwe/work/project/backstage/apks/com.netflix.mediaclient'
p22
aS'/home/srwe/work/project/backstage/apks/com.outfit7.talkingangelafree_v2.2'
p23
aS'/home/srwe/work/project/backstage/apks/animaonline.android.wikiexplorer_v1.5.5'
p24
aS'/home/srwe/work/project/backstage/apks/pr0gram3r72.ClashOfClans_Map_v1'
p25
aS'/home/srwe/work/project/backstage/apks/com.devuni.flashlight_v5.1.5'
p26
aS'/home/srwe/work/project/backstage/apks/de.lineas.lit.ntv.android_v4.0.3'
p27
aS'/home/srwe/work/project/backstage/apks/com.girly.newwallpaper'
p28
aS'/home/srwe/work/project/backstage/apks/org.ametro_40'
p29
aS'/home/srwe/work/project/backstage/apks/com.apps.tomlinson.thefut17draftsimulator'
p30
aS'/home/srwe/work/project/backstage/apks/de.mobile.android.app'
p31
aS'/home/srwe/work/project/backstage/apks/com.rhmsoft.fm_v1.17.0'
p32
aS'/home/srwe/work/project/backstage/apks/com.baviux.pillreminder'
p33
aS'/home/srwe/work/project/backstage/apks/de.wetteronline.wetterapp_v2.3.3'
p34
aS'/home/srwe/work/project/backstage/apks/com.mapfactor.navigator_v1.3.24'
p35
aS'/home/srwe/work/project/backstage/apks/com.skype.raider'
p36
aS'/home/srwe/work/project/backstage/apks/learn.to.draw.glow.animal'
p37
aS'/home/srwe/work/project/backstage/apks/com.onemanwithcameralomo_v3.8.2'
p38
aS'/home/srwe/work/project/backstage/apks/learn.to.draw.glow.cartoon'
p39
aS'/home/srwe/work/project/backstage/apks/com.kaspersky.qrscanner'
p40
aS'/home/srwe/work/project/backstage/apks/com.tinder_v2.2.3'
p41
aS'/home/srwe/work/project/backstage/apks/cz.skodaauto.smartgate'
p42
aS'/home/srwe/work/project/backstage/apks/com.joeware.android.gpulumera'
p43
aS'/home/srwe/work/project/backstage/apks/com.apusapps.launcher_v1.4.0'
p44
aS'/home/srwe/work/project/backstage/apks/com.piriform.ccleaner'
p45
aS'/home/srwe/work/project/backstage/apks/com.cleanmaster.mguard'
p46
aS'/home/srwe/work/project/backstage/apks/de.schildbach.oeffi_v8.67'
p47
aS'/home/srwe/work/project/backstage/apks/codeadore.textgram'
p48
aS'/home/srwe/work/project/backstage/apks/com.doublerouble.counter'
p49
aS'/home/srwe/work/project/backstage/apks/com.vervigroup.deadline2do_v1.105'
p50
aS'/home/srwe/work/project/backstage/apks/com.frogsparks.mytrails_v1.4.5'
p51
aS'/home/srwe/work/project/backstage/apks/com.eabdrazakov.photomontage'
p52
aS'/home/srwe/work/project/backstage/apks/com.popularapp.periodcalendar'
p53
aS'/home/srwe/work/project/backstage/apks/com.google.android.apps.translate_v3.0.12'
p54
aS'/home/srwe/work/project/backstage/apks/com.futurebits.instamessage.free'
p55
aS'/home/srwe/work/project/backstage/apks/com.duolingo_v2.7.2'
p56
aS'/home/srwe/work/project/backstage/apks/com.ht.manga.gpanda_v1.3.4'
p57
aS'/home/srwe/work/project/backstage/apks/com.waze'
p58
aS'/home/srwe/work/project/backstage/apks/com.megalol.quotes_v1.42'
p59
aS'/home/srwe/work/project/backstage/apks/com.facebook.katana_v28.0.0.20.16'
p60
aS'/home/srwe/work/project/backstage/apks/com.ifap.arzneiaktuell_v2.2.3'
p61
aS'/home/srwe/work/project/backstage/apks/com.simplemobiletools.calendar_80'
p62
aS'/home/srwe/work/project/backstage/apks/com.deutschland.autoteile'
p63
aS'/home/srwe/work/project/backstage/apks/com.aoemoji.keyboard.plugin.emojistyle.osemoji'
p64
aS'/home/srwe/work/project/backstage/apks/com.geekslab.qrbarcodescanner.pro'
p65
aS'/home/srwe/work/project/backstage/apks/com.CartoonAvatar.PhotoMaker_v1.1'
p66
aS'/home/srwe/work/project/backstage/apks/com.sarnavsky.pasz.nightlight'
p67
aS'/home/srwe/work/project/backstage/apks/de.braverstudent.nichtlachen'
p68
aS'/home/srwe/work/project/backstage/apks/com.runtastic.android_v5.2.1'
p69
aS'/home/srwe/work/project/backstage/apks/com.rtlinteractive.rtlnow_v1.2.2'
p70
aS'/home/srwe/work/project/backstage/apks/com.pipcamera.activity'
p71
aS'/home/srwe/work/project/backstage/apks/com.zdf.android.mediathek_v2.3.1'
p72
aS'/home/srwe/work/project/backstage/apks/com.tripadvisor.tripadvisor'
p73
aS'/home/srwe/work/project/backstage/apks/mg.locations.track5'
p74
aS'/home/srwe/work/project/backstage/apks/com.futbin'
p75
aS'/home/srwe/work/project/backstage/apks/com.dougkeen.bart_33'
p76
aS'/home/srwe/work/project/backstage/apks/me.dbarnett.acastus_11'
p77
aS'/home/srwe/work/project/backstage/apks/com.majeur.applicationsinfo_7'
p78
aS'/home/srwe/work/project/backstage/apks/com.paypal.android.p2pmobile_v5.11.3'
p79
aS'/home/srwe/work/project/backstage/apks/com.ebay.mobile_v2.8.2.1'
p80
aS'/home/srwe/work/project/backstage/apks/com.jrtstudio.music'
p81
aS'/home/srwe/work/project/backstage/apks/de.nichtlustig.android_v1.0.6'
p82
aS'/home/srwe/work/project/backstage/apks/cz.aponia.bor3'
p83
aS'/home/srwe/work/project/backstage/apks/com.aviary.android.feather.plugins.stickers.free_stickers_v1.0'
p84
aS'/home/srwe/work/project/backstage/apks/de.arbeitsagentur.jobboerse'
p85
aS'/home/srwe/work/project/backstage/apks/com.astrovicapp.bigDaysLite'
p86
aS'/home/srwe/work/project/backstage/apks/de.gmx.mobile.android.mail_v1.58.6'
p87
aS'/home/srwe/work/project/backstage/apks/com.google.android.launcher_v1.1.0.1167994'
p88
aS'/home/srwe/work/project/backstage/apks/net.psyberia.offlinemaps_v1.18c'
p89
aS'/home/srwe/work/project/backstage/apks/cz.aponia.bor3.offlinemaps'
p90
aS'/home/srwe/work/project/backstage/apks/com.scee.psxandroid'
p91
aS'/home/srwe/work/project/backstage/apks/com.jb.gokeyboard_v2.13'
p92
aS'/home/srwe/work/project/backstage/apks/com.random.chat.app'
p93
aS'/home/srwe/work/project/backstage/apks/com.twitter.android_v5.24.0'
p94
aS'/home/srwe/work/project/backstage/apks/com.netbiscuits.kicker_v3.2.3'
p95
aS'/home/srwe/work/project/backstage/apks/com.farproc.wifi.connecter'
p96
aS'/home/srwe/work/project/backstage/apks/com.simplemobiletools.camera_43'
p97
aS'/home/srwe/work/project/backstage/apks/com.wetter.androidclient_v1.4.9.1'
p98
aS'/home/srwe/work/project/backstage/apks/com.google.earth_v7.1.3.1255'
p99
aS'/home/srwe/work/project/backstage/apks/com.knuddels.android'
p100
aS'/home/srwe/work/project/backstage/apks/com.devexpert.weather_v4.5.2'
p101
aS'/home/srwe/work/project/backstage/apks/com.myfitnesspal.android'
p102
aS'/home/srwe/work/project/backstage/apks/de.hafas.android.db_v15.04.p06.00'
p103
aS'/home/srwe/work/project/backstage/apks/de.pappermint.notfallsani_v1.2.1'
p104
aS'/home/srwe/work/project/backstage/apks/net.zedge.android'
p105
aS'/home/srwe/work/project/backstage/apks/com.levelup.brightweather_v1.05'
p106
aS'/home/srwe/work/project/backstage/apks/com.duolingo'
p107
aS'/home/srwe/work/project/backstage/apks/de.spiegel.android.app.spon'
p108
aS'/home/srwe/work/project/backstage/apks/com.evgit.sochi2014olympics_v1.9.4'
p109
aS'/home/srwe/work/project/backstage/apks/de.bayercropscience'
p110
aS'/home/srwe/work/project/backstage/apks/com.g8n8.pregnancytracker'
p111
aS'/home/srwe/work/project/backstage/apks/com.oldguide.inter.tipstekken'
p112
aS'/home/srwe/work/project/backstage/apks/com.ebay.mobile'
p113
aS'/home/srwe/work/project/backstage/apks/de.k3b.android.androFotoFinder_30'
p114
aS'/home/srwe/work/project/backstage/apks/com.lumoslabs.lumosity_v1.0.109'
p115
aS'/home/srwe/work/project/backstage/apks/com.ng.dailynews_v1.13'
p116
aS'/home/srwe/work/project/backstage/apks/com.quvideo.xiaoying'
p117
aS'/home/srwe/work/project/backstage/apks/com.mixvibes.crossdjfree_v1.4.6'
p118
aS'/home/srwe/work/project/backstage/apks/com.babbel.mobile.android.en_v4.3.3'
p119
aS'/home/srwe/work/project/backstage/apks/com.arcsoft.perfect365'
p120
aS'/home/srwe/work/project/backstage/apks/com.netbiscuits.bild.android_v3.5.6'
p121
aS'/home/srwe/work/project/backstage/apks/arlind.Shqip_v2.0'
p122
aS'/home/srwe/work/project/backstage/apks/de.is24.android_v4.6.2'
p123
aS'/home/srwe/work/project/backstage/apks/com.adobe.reader_v11.5.0.1'
p124
aS'/home/srwe/work/project/backstage/apks/com.whatsapp.wallpaper_v2'
p125
aS'/home/srwe/work/project/backstage/apks/ch.threema.qrscannerplugin_v1.1'
p126
aS'/home/srwe/work/project/backstage/apks/com.fashion.tattoo.name.my.photo.editor'
p127
aS'/home/srwe/work/project/backstage/apks/com.girlym.beautifulgirlimages'
p128
aS'/home/srwe/work/project/backstage/apks/arity.calculator_27'
p129
aS'/home/srwe/work/project/backstage/apks/de.dasoertliche.android_v3.11'
p130
aS'/home/srwe/work/project/backstage/apks/mbinc12.mb32b'
p131
aS'/home/srwe/work/project/backstage/apks/com.ufo.disease'
p132
aS'/home/srwe/work/project/backstage/apks/com.trivago_v1.9.2'
p133
aS'/home/srwe/work/project/backstage/apks/de.zeit.online_v1.1'
p134
aS'/home/srwe/work/project/backstage/apks/com.babycenter.pregnancytracker'
p135
aS'/home/srwe/work/project/backstage/apks/mobi.infolife.ezweather.widget.gcolour'
p136
aS'/home/srwe/work/project/backstage/apks/com.spotify.music'
p137
aS'/home/srwe/work/project/backstage/apks/de.betaapps.bruttonetto'
p138
aS'/home/srwe/work/project/backstage/apks/com.shazam.android_v4.9.1-14091210-c329e9a'
p139
aS'/home/srwe/work/project/backstage/apks/mobi.infolife.ezweather.widget.figures'
p140
aS'/home/srwe/work/project/backstage/apks/com.zentertain.photoeditor_v1.11'
p141
aS'/home/srwe/work/project/backstage/apks/com.aviary.android.feather.plugins.borders.free_v1.1'
p142
aS'/home/srwe/work/project/backstage/apks/com.ivuu'
p143
aS'/home/srwe/work/project/backstage/apks/com.picsart.studio'
p144
aS'/home/srwe/work/project/backstage/apks/de.autodoc.gmbh'
p145
aS'/home/srwe/work/project/backstage/apks/com.contextlogic.wish_v3.10.5'
p146
aS'/home/srwe/work/project/backstage/apks/com.yed.sexyvideostreaming'
p147
aS'/home/srwe/work/project/backstage/apks/com.qisiemoji.inputmethod_v2.4'
p148
aS'/home/srwe/work/project/backstage/apks/ch.bailu.aat_18'
p149
aS'/home/srwe/work/project/backstage/apks/com.oxylane.android.decathlon'
p150
aS'/home/srwe/work/project/backstage/apks/com.radio.fmradio'
p151
aS'/home/srwe/work/project/backstage/apks/com.unicef.maranetwork_v1.1'
p152
aS'/home/srwe/work/project/backstage/apks/com.ebayschnppchen_v1.31'
p153
aS'/home/srwe/work/project/backstage/apks/coml.macromassive.babytooth.app'
p154
aS'/home/srwe/work/project/backstage/apks/com.phonegap.wgtguide'
p155
aS'/home/srwe/work/project/backstage/apks/com.almalence.opencam_v3.24'
p156
aS'/home/srwe/work/project/backstage/apks/com.androidwasabi.livewallpaper.g3_v1.0.2'
p157
aS'/home/srwe/work/project/backstage/apks/com.naver.linewebtoon_v1.0.6'
p158
aS'/home/srwe/work/project/backstage/apks/cn.wps.moffice_eng_v6.1.1'
p159
aS'/home/srwe/work/project/backstage/apks/con.example.flashplayer.appi'
p160
aS'/home/srwe/work/project/backstage/apks/org.youcorp.matchschedule.eu_v1.9'
p161
aS'/home/srwe/work/project/backstage/apks/com.ben.lianmeng_v1.0'
p162
aS'/home/srwe/work/project/backstage/apks/com.dozingcatsoftware.cameratimer_6'
p163
aS'/home/srwe/work/project/backstage/apks/com.avira.android_v3.5'
p164
aS'/home/srwe/work/project/backstage/apks/menion.android.locus'
p165
aS'/home/srwe/work/project/backstage/apks/com.wetter.androidclient_v2.3.1'
p166
aS'/home/srwe/work/project/backstage/apks/de.pixelhouse'
p167
aS'/home/srwe/work/project/backstage/apks/com.deutschland.gebrauchtwagen'
p168
aS'/home/srwe/work/project/backstage/apks/com.riffsy.FBMGIFApp'
p169
aS'/home/srwe/work/project/backstage/apks/com.gamesdev.cartoon'
p170
aS'/home/srwe/work/project/backstage/apks/com.dynamixsoftware.printhand_v6.1.4'
p171
aS'/home/srwe/work/project/backstage/apks/com.picsart.animate'
p172
aS'/home/srwe/work/project/backstage/apks/de.appfiction.yocutiegoogle'
p173
aS'/home/srwe/work/project/backstage/apks/net.lovoo.android_v2.5.1'
p174
aS'/home/srwe/work/project/backstage/apks/de.digame.esc_v2.1.1'
p175
aS'/home/srwe/work/project/backstage/apks/dating.app.chat.flirt.wgbcv'
p176
aS'/home/srwe/work/project/backstage/apks/com.samremote.view'
p177
aS'/home/srwe/work/project/backstage/apks/de.tipicotraining_v4.0'
p178
aS'/home/srwe/work/project/backstage/apks/com.jdpapps.textt1'
p179
aS'/home/srwe/work/project/backstage/apks/com.contextlogic.geek_v1.1.1'
p180
aS'/home/srwe/work/project/backstage/apks/com.mattia.videos.manager_v1.01'
p181
aS'/home/srwe/work/project/backstage/apks/de.degener.click_and_learn'
p182
aS'/home/srwe/work/project/backstage/apks/com.audible.application'
p183
aS'/home/srwe/work/project/backstage/apks/de.cellular.focus'
p184
aS'/home/srwe/work/project/backstage/apks/com.kms.free'
p185
aS'/home/srwe/work/project/backstage/apks/com.facebook.orca_v12.0.0.21.14'
p186
aS'/home/srwe/work/project/backstage/apks/de.aldiNord.android'
p187
aS'/home/srwe/work/project/backstage/apks/com.adermark.forestpondfree_v1.06'
p188
aS'/home/srwe/work/project/backstage/apks/com.snapchat.android_v5.0.34.6'
p189
aS'/home/srwe/work/project/backstage/apks/com.entersekt.authapp.dkb'
p190
aS'/home/srwe/work/project/backstage/apks/com.ebay.kleinanzeigen_v5.0.3'
p191
aS'/home/srwe/work/project/backstage/apks/com.facebook.katana_v16.0.0.20.15'
p192
aS'/home/srwe/work/project/backstage/apks/deezer.android.app_v4.4.3.14'
p193
aS'/home/srwe/work/project/backstage/apks/com.starfinanz.mobile.android.dkbpushtan'
p194
aS'/home/srwe/work/project/backstage/apks/com.runtastic.android.pedometer.lite_v1.4'
p195
aS'/home/srwe/work/project/backstage/apks/com.infraware.office.link_v6.0.9'
p196
aS'/home/srwe/work/project/backstage/apks/de.prosiebensat1digital.seventv_v1.2'
p197
aS'/home/srwe/work/project/backstage/apks/com.steam.photoeditor'
p198
aS'/home/srwe/work/project/backstage/apks/com.indeed.android.jobsearch'
p199
aS'/home/srwe/work/project/backstage/apks/air.com.demute.TaoMix_v1.1.13'
p200
aS'/home/srwe/work/project/backstage/apks/ru.tubin.bp_v1.43'
p201
aS'/home/srwe/work/project/backstage/apks/baby.com.ToysToSee'
p202
aS'/home/srwe/work/project/backstage/apks/com.miantan.myoface_v3.3.0'
p203
aS'/home/srwe/work/project/backstage/apks/de.avm.android.wlanapp'
p204
aS'/home/srwe/work/project/backstage/apks/baby.com.FunToyzCollector'
p205
aS'/home/srwe/work/project/backstage/apks/de.apps.simple.tmrezeptsammlung'
p206
aS'/home/srwe/work/project/backstage/apks/com.antivirus_v4.1.2'
p207
aS'/home/srwe/work/project/backstage/apks/com.sgiggle.production'
p208
aS'/home/srwe/work/project/backstage/apks/com.wondershare.powerselfie_v1.0.2'
p209
aS'/home/srwe/work/project/backstage/apks/com.whatsapp'
p210
aS'/home/srwe/work/project/backstage/apks/com.audioguidia.myweather_v1.8.4'
p211
aS'/home/srwe/work/project/backstage/apks/com.slick.clearyourphone'
p212
aS'/home/srwe/work/project/backstage/apks/com.waplog.social'
p213
aS'/home/srwe/work/project/backstage/apks/com.shpock.android_v2.4.5'
p214
aS'/home/srwe/work/project/backstage/apks/de.msg.qdcheats_v1.2.1'
p215
aS'/home/srwe/work/project/backstage/apks/de.mcdonalds.mcdonaldsinfoapp_v1.4.0.1'
p216
aS'/home/srwe/work/project/backstage/apks/org.videolan.vlc.betav7neon_v0.9.9'
p217
aS'/home/srwe/work/project/backstage/apks/com.instagram.android_v6.16.1'
p218
aS'/home/srwe/work/project/backstage/apks/com.amazon.mShop.android.shopping'
p219
aS'/home/srwe/work/project/backstage/apks/com.eisterhues_media_2'
p220
aS'/home/srwe/work/project/backstage/apks/com.zlamanit.blood.pressure'
p221
aS'/home/srwe/work/project/backstage/apks/com.ptvag.android.adacgasprices_v1.3.3'
p222
aS'/home/srwe/work/project/backstage/apks/com.viber.voip_v4.3.3.67'
p223
aS'/home/srwe/work/project/backstage/apks/com.shareitagain.mymoodsmiley'
p224
aS'/home/srwe/work/project/backstage/apks/com.masarat.salati'
p225
aS'/home/srwe/work/project/backstage/apks/com.dsi.ant.plugins.antplus_v3.1.0'
p226
aS'/home/srwe/work/project/backstage/apks/de.meinfernbus_v1.5'
p227
aS'/home/srwe/work/project/backstage/apks/com.AnatomyLearning.Anatomy3DViewer3_v1.0'
p228
aS'/home/srwe/work/project/backstage/apks/de.blitzer_v2.7.4'
p229
aS'/home/srwe/work/project/backstage/apks/de.aid.nuetzlinge'
p230
aS'/home/srwe/work/project/backstage/apks/com.rtli.clipfish_v3.2'
p231
aS'/home/srwe/work/project/backstage/apks/com.surpax.ledflashlight.panel'
p232
aS'/home/srwe/work/project/backstage/apks/media.music.musicplayer.mp3player'
p233
aS'/home/srwe/work/project/backstage/apks/com.dianxinos.dxbs_v3.8.5'
p234
aS'/home/srwe/work/project/backstage/apks/com.jb.zcamera'
p235
aS'/home/srwe/work/project/backstage/apks/de.wortundbildverlag.mobil.apotheke_v5.1.1'
p236
aS'/home/srwe/work/project/backstage/apks/org.leo.android.dict_v5.3'
p237
aS'/home/srwe/work/project/backstage/apks/de.dfbmedien.FussballDE'
p238
aS'/home/srwe/work/project/backstage/apks/com.bookmark.money_vandroid-2.3.1'
p239
aS'/home/srwe/work/project/backstage/apks/com.github.axet.callrecorder_87'
p240
aS'/home/srwe/work/project/backstage/apks/com.google.android.keep_v2.3.02'
p241
aS'/home/srwe/work/project/backstage/apks/com.gau.go.launcherex.gowidget.weatherwidget'
p242
aS'/home/srwe/work/project/backstage/apks/com.liwenwen20131497.christmas_v2.1'
p243
aS'/home/srwe/work/project/backstage/apks/com.netflix.mediaclient'
p244
aS'/home/srwe/work/project/backstage/apks/com.outfit7.talkingangelafree_v2.2'
p245
aS'/home/srwe/work/project/backstage/apks/animaonline.android.wikiexplorer_v1.5.5'
p246
aS'/home/srwe/work/project/backstage/apks/pr0gram3r72.ClashOfClans_Map_v1'
p247
aS'/home/srwe/work/project/backstage/apks/com.devuni.flashlight_v5.1.5'
p248
aS'/home/srwe/work/project/backstage/apks/de.lineas.lit.ntv.android_v4.0.3'
p249
aS'/home/srwe/work/project/backstage/apks/com.girly.newwallpaper'
p250
aS'/home/srwe/work/project/backstage/apks/org.ametro_40'
p251
aS'/home/srwe/work/project/backstage/apks/com.apps.tomlinson.thefut17draftsimulator'
p252
aS'/home/srwe/work/project/backstage/apks/de.mobile.android.app'
p253
aS'/home/srwe/work/project/backstage/apks/com.rhmsoft.fm_v1.17.0'
p254
aS'/home/srwe/work/project/backstage/apks/com.baviux.pillreminder'
p255
aS'/home/srwe/work/project/backstage/apks/de.wetteronline.wetterapp_v2.3.3'
p256
aS'/home/srwe/work/project/backstage/apks/com.mapfactor.navigator_v1.3.24'
p257
aS'/home/srwe/work/project/backstage/apks/com.skype.raider'
p258
aS'/home/srwe/work/project/backstage/apks/learn.to.draw.glow.animal'
p259
aS'/home/srwe/work/project/backstage/apks/com.onemanwithcameralomo_v3.8.2'
p260
aS'/home/srwe/work/project/backstage/apks/learn.to.draw.glow.cartoon'
p261
aS'/home/srwe/work/project/backstage/apks/com.kaspersky.qrscanner'
p262
aS'/home/srwe/work/project/backstage/apks/com.tinder_v2.2.3'
p263
aS'/home/srwe/work/project/backstage/apks/cz.skodaauto.smartgate'
p264
aS'/home/srwe/work/project/backstage/apks/com.joeware.android.gpulumera'
p265
aS'/home/srwe/work/project/backstage/apks/com.apusapps.launcher_v1.4.0'
p266
aS'/home/srwe/work/project/backstage/apks/com.piriform.ccleaner'
p267
aS'/home/srwe/work/project/backstage/apks/com.AnatomyLearning.Anatomy3DViewer3_v1.0'
p268
aS'/home/srwe/work/project/backstage/apks/de.blitzer_v2.7.4'
p269
aS'/home/srwe/work/project/backstage/apks/de.aid.nuetzlinge'
p270
aS'/home/srwe/work/project/backstage/apks/com.rtli.clipfish_v3.2'
p271
aS'/home/srwe/work/project/backstage/apks/com.surpax.ledflashlight.panel'
p272
aS'/home/srwe/work/project/backstage/apks/media.music.musicplayer.mp3player'
p273
aS'/home/srwe/work/project/backstage/apks/com.dianxinos.dxbs_v3.8.5'
p274
aS'/home/srwe/work/project/backstage/apks/com.jb.zcamera'
p275
aS'/home/srwe/work/project/backstage/apks/de.wortundbildverlag.mobil.apotheke_v5.1.1'
p276
aS'/home/srwe/work/project/backstage/apks/org.leo.android.dict_v5.3'
p277
aS'/home/srwe/work/project/backstage/apks/de.dfbmedien.FussballDE'
p278
aS'/home/srwe/work/project/backstage/apks/com.bookmark.money_vandroid-2.3.1'
p279
aS'/home/srwe/work/project/backstage/apks/com.github.axet.callrecorder_87'
p280
aS'/home/srwe/work/project/backstage/apks/com.google.android.keep_v2.3.02'
p281
aS'/home/srwe/work/project/backstage/apks/com.gau.go.launcherex.gowidget.weatherwidget'
p282
aS'/home/srwe/work/project/backstage/apks/com.liwenwen20131497.christmas_v2.1'
p283
aS'/home/srwe/work/project/backstage/apks/com.netflix.mediaclient'
p284
aS'/home/srwe/work/project/backstage/apks/com.outfit7.talkingangelafree_v2.2'
p285
aS'/home/srwe/work/project/backstage/apks/animaonline.android.wikiexplorer_v1.5.5'
p286
aS'/home/srwe/work/project/backstage/apks/pr0gram3r72.ClashOfClans_Map_v1'
p287
aS'/home/srwe/work/project/backstage/apks/com.devuni.flashlight_v5.1.5'
p288
aS'/home/srwe/work/project/backstage/apks/de.lineas.lit.ntv.android_v4.0.3'
p289
aS'/home/srwe/work/project/backstage/apks/com.girly.newwallpaper'
p290
aS'/home/srwe/work/project/backstage/apks/org.ametro_40'
p291
aS'/home/srwe/work/project/backstage/apks/com.apps.tomlinson.thefut17draftsimulator'
p292
aS'/home/srwe/work/project/backstage/apks/de.mobile.android.app'
p293
aS'/home/srwe/work/project/backstage/apks/com.rhmsoft.fm_v1.17.0'
p294
aS'/home/srwe/work/project/backstage/apks/com.baviux.pillreminder'
p295
aS'/home/srwe/work/project/backstage/apks/de.wetteronline.wetterapp_v2.3.3'
p296
aS'/home/srwe/work/project/backstage/apks/com.mapfactor.navigator_v1.3.24'
p297
aS'/home/srwe/work/project/backstage/apks/com.skype.raider'
p298
aS'/home/srwe/work/project/backstage/apks/learn.to.draw.glow.animal'
p299
aS'/home/srwe/work/project/backstage/apks/com.onemanwithcameralomo_v3.8.2'
p300
aS'/home/srwe/work/project/backstage/apks/learn.to.draw.glow.cartoon'
p301
aS'/home/srwe/work/project/backstage/apks/com.kaspersky.qrscanner'
p302
aS'/home/srwe/work/project/backstage/apks/com.tinder_v2.2.3'
p303
aS'/home/srwe/work/project/backstage/apks/cz.skodaauto.smartgate'
p304
aS'/home/srwe/work/project/backstage/apks/com.joeware.android.gpulumera'
p305
aS'/home/srwe/work/project/backstage/apks/com.apusapps.launcher_v1.4.0'
p306
aS'/home/srwe/work/project/backstage/apks/com.piriform.ccleaner'
p307
aS'/home/srwe/work/project/backstage/apks/com.cleanmaster.mguard'
p308
aS'/home/srwe/work/project/backstage/apks/de.schildbach.oeffi_v8.67'
p309
aS'/home/srwe/work/project/backstage/apks/codeadore.textgram'
p310
aS'/home/srwe/work/project/backstage/apks/com.doublerouble.counter'
p311
aS'/home/srwe/work/project/backstage/apks/com.vervigroup.deadline2do_v1.105'
p312
aS'/home/srwe/work/project/backstage/apks/com.frogsparks.mytrails_v1.4.5'
p313
aS'/home/srwe/work/project/backstage/apks/com.eabdrazakov.photomontage'
p314
aS'/home/srwe/work/project/backstage/apks/com.popularapp.periodcalendar'
p315
aS'/home/srwe/work/project/backstage/apks/com.google.android.apps.translate_v3.0.12'
p316
aS'/home/srwe/work/project/backstage/apks/com.futurebits.instamessage.free'
p317
aS'/home/srwe/work/project/backstage/apks/com.duolingo_v2.7.2'
p318
aS'/home/srwe/work/project/backstage/apks/com.ht.manga.gpanda_v1.3.4'
p319
aS'/home/srwe/work/project/backstage/apks/com.waze'
p320
aS'/home/srwe/work/project/backstage/apks/com.megalol.quotes_v1.42'
p321
aS'/home/srwe/work/project/backstage/apks/com.facebook.katana_v28.0.0.20.16'
p322
aS'/home/srwe/work/project/backstage/apks/com.ifap.arzneiaktuell_v2.2.3'
p323
aS'/home/srwe/work/project/backstage/apks/com.simplemobiletools.calendar_80'
p324
aS'/home/srwe/work/project/backstage/apks/com.deutschland.autoteile'
p325
aS'/home/srwe/work/project/backstage/apks/com.aoemoji.keyboard.plugin.emojistyle.osemoji'
p326
aS'/home/srwe/work/project/backstage/apks/com.geekslab.qrbarcodescanner.pro'
p327
aS'/home/srwe/work/project/backstage/apks/com.CartoonAvatar.PhotoMaker_v1.1'
p328
aS'/home/srwe/work/project/backstage/apks/com.sarnavsky.pasz.nightlight'
p329
aS'/home/srwe/work/project/backstage/apks/de.braverstudent.nichtlachen'
p330
aS'/home/srwe/work/project/backstage/apks/com.runtastic.android_v5.2.1'
p331
aS'/home/srwe/work/project/backstage/apks/com.rtlinteractive.rtlnow_v1.2.2'
p332
aS'/home/srwe/work/project/backstage/apks/com.pipcamera.activity'
p333
aS'/home/srwe/work/project/backstage/apks/com.zdf.android.mediathek_v2.3.1'
p334
aS'/home/srwe/work/project/backstage/apks/com.tripadvisor.tripadvisor'
p335
aS'/home/srwe/work/project/backstage/apks/mg.locations.track5'
p336
aS'/home/srwe/work/project/backstage/apks/com.futbin'
p337
aS'/home/srwe/work/project/backstage/apks/com.dougkeen.bart_33'
p338
aS'/home/srwe/work/project/backstage/apks/me.dbarnett.acastus_11'
p339
aS'/home/srwe/work/project/backstage/apks/com.majeur.applicationsinfo_7'
p340
aS'/home/srwe/work/project/backstage/apks/com.paypal.android.p2pmobile_v5.11.3'
p341
aS'/home/srwe/work/project/backstage/apks/com.ebay.mobile_v2.8.2.1'
p342
aS'/home/srwe/work/project/backstage/apks/com.jrtstudio.music'
p343
aS'/home/srwe/work/project/backstage/apks/de.nichtlustig.android_v1.0.6'
p344
aS'/home/srwe/work/project/backstage/apks/cz.aponia.bor3'
p345
aS'/home/srwe/work/project/backstage/apks/com.aviary.android.feather.plugins.stickers.free_stickers_v1.0'
p346
aS'/home/srwe/work/project/backstage/apks/de.arbeitsagentur.jobboerse'
p347
aS'/home/srwe/work/project/backstage/apks/com.astrovicapp.bigDaysLite'
p348
aS'/home/srwe/work/project/backstage/apks/de.gmx.mobile.android.mail_v1.58.6'
p349
aS'/home/srwe/work/project/backstage/apks/com.google.android.launcher_v1.1.0.1167994'
p350
aS'/home/srwe/work/project/backstage/apks/net.psyberia.offlinemaps_v1.18c'
p351
aS'/home/srwe/work/project/backstage/apks/cz.aponia.bor3.offlinemaps'
p352
aS'/home/srwe/work/project/backstage/apks/com.scee.psxandroid'
p353
aS'/home/srwe/work/project/backstage/apks/com.jb.gokeyboard_v2.13'
p354
aS'/home/srwe/work/project/backstage/apks/com.random.chat.app'
p355
aS'/home/srwe/work/project/backstage/apks/com.twitter.android_v5.24.0'
p356
aS'/home/srwe/work/project/backstage/apks/com.netbiscuits.kicker_v3.2.3'
p357
aS'/home/srwe/work/project/backstage/apks/com.farproc.wifi.connecter'
p358
aS'/home/srwe/work/project/backstage/apks/com.simplemobiletools.camera_43'
p359
aS'/home/srwe/work/project/backstage/apks/com.wetter.androidclient_v1.4.9.1'
p360
aS'/home/srwe/work/project/backstage/apks/com.google.earth_v7.1.3.1255'
p361
aS'/home/srwe/work/project/backstage/apks/com.knuddels.android'
p362
aS'/home/srwe/work/project/backstage/apks/com.devexpert.weather_v4.5.2'
p363
aS'/home/srwe/work/project/backstage/apks/com.myfitnesspal.android'
p364
aS'/home/srwe/work/project/backstage/apks/de.hafas.android.db_v15.04.p06.00'
p365
aS'/home/srwe/work/project/backstage/apks/de.pappermint.notfallsani_v1.2.1'
p366
aS'/home/srwe/work/project/backstage/apks/net.zedge.android'
p367
aS'/home/srwe/work/project/backstage/apks/com.levelup.brightweather_v1.05'
p368
aS'/home/srwe/work/project/backstage/apks/com.duolingo'
p369
aS'/home/srwe/work/project/backstage/apks/de.spiegel.android.app.spon'
p370
aS'/home/srwe/work/project/backstage/apks/com.evgit.sochi2014olympics_v1.9.4'
p371
aS'/home/srwe/work/project/backstage/apks/de.bayercropscience'
p372
aS'/home/srwe/work/project/backstage/apks/com.g8n8.pregnancytracker'
p373
aS'/home/srwe/work/project/backstage/apks/com.oldguide.inter.tipstekken'
p374
aS'/home/srwe/work/project/backstage/apks/com.ebay.mobile'
p375
aS'/home/srwe/work/project/backstage/apks/de.k3b.android.androFotoFinder_30'
p376
aS'/home/srwe/work/project/backstage/apks/com.lumoslabs.lumosity_v1.0.109'
p377
aS'/home/srwe/work/project/backstage/apks/com.ng.dailynews_v1.13'
p378
aS'/home/srwe/work/project/backstage/apks/com.quvideo.xiaoying'
p379
aS'/home/srwe/work/project/backstage/apks/com.mixvibes.crossdjfree_v1.4.6'
p380
aS'/home/srwe/work/project/backstage/apks/com.babbel.mobile.android.en_v4.3.3'
p381
aS'/home/srwe/work/project/backstage/apks/com.arcsoft.perfect365'
p382
aS'/home/srwe/work/project/backstage/apks/com.netbiscuits.bild.android_v3.5.6'
p383
aS'/home/srwe/work/project/backstage/apks/arlind.Shqip_v2.0'
p384
aS'/home/srwe/work/project/backstage/apks/de.is24.android_v4.6.2'
p385
aS'/home/srwe/work/project/backstage/apks/com.adobe.reader_v11.5.0.1'
p386
aS'/home/srwe/work/project/backstage/apks/com.whatsapp.wallpaper_v2'
p387
aS'/home/srwe/work/project/backstage/apks/ch.threema.qrscannerplugin_v1.1'
p388
aS'/home/srwe/work/project/backstage/apks/com.fashion.tattoo.name.my.photo.editor'
p389
aS'/home/srwe/work/project/backstage/apks/com.girlym.beautifulgirlimages'
p390
aS'/home/srwe/work/project/backstage/apks/arity.calculator_27'
p391
aS'/home/srwe/work/project/backstage/apks/de.dasoertliche.android_v3.11'
p392
aS'/home/srwe/work/project/backstage/apks/mbinc12.mb32b'
p393
aS'/home/srwe/work/project/backstage/apks/com.ufo.disease'
p394
aS'/home/srwe/work/project/backstage/apks/com.trivago_v1.9.2'
p395
aS'/home/srwe/work/project/backstage/apks/de.zeit.online_v1.1'
p396
aS'/home/srwe/work/project/backstage/apks/com.babycenter.pregnancytracker'
p397
aS'/home/srwe/work/project/backstage/apks/com.AnatomyLearning.Anatomy3DViewer3_v1.0'
p398
aS'/home/srwe/work/project/backstage/apks/de.blitzer_v2.7.4'
p399
aS'/home/srwe/work/project/backstage/apks/de.aid.nuetzlinge'
p400
aS'/home/srwe/work/project/backstage/apks/com.rtli.clipfish_v3.2'
p401
aS'/home/srwe/work/project/backstage/apks/com.surpax.ledflashlight.panel'
p402
aS'/home/srwe/work/project/backstage/apks/media.music.musicplayer.mp3player'
p403
aS'/home/srwe/work/project/backstage/apks/com.dianxinos.dxbs_v3.8.5'
p404
aS'/home/srwe/work/project/backstage/apks/com.jb.zcamera'
p405
aS'/home/srwe/work/project/backstage/apks/de.wortundbildverlag.mobil.apotheke_v5.1.1'
p406
aS'/home/srwe/work/project/backstage/apks/org.leo.android.dict_v5.3'
p407
aS'/home/srwe/work/project/backstage/apks/de.dfbmedien.FussballDE'
p408
aS'/home/srwe/work/project/backstage/apks/com.bookmark.money_vandroid-2.3.1'
p409
aS'/home/srwe/work/project/backstage/apks/com.github.axet.callrecorder_87'
p410
aS'/home/srwe/work/project/backstage/apks/com.google.android.keep_v2.3.02'
p411
aS'/home/srwe/work/project/backstage/apks/com.gau.go.launcherex.gowidget.weatherwidget'
p412
aS'/home/srwe/work/project/backstage/apks/com.liwenwen20131497.christmas_v2.1'
p413
aS'/home/srwe/work/project/backstage/apks/com.netflix.mediaclient'
p414
aS'/home/srwe/work/project/backstage/apks/com.outfit7.talkingangelafree_v2.2'
p415
aS'/home/srwe/work/project/backstage/apks/animaonline.android.wikiexplorer_v1.5.5'
p416
aS'/home/srwe/work/project/backstage/apks/pr0gram3r72.ClashOfClans_Map_v1'
p417
aS'/home/srwe/work/project/backstage/apks/com.devuni.flashlight_v5.1.5'
p418
aS'/home/srwe/work/project/backstage/apks/de.lineas.lit.ntv.android_v4.0.3'
p419
aS'/home/srwe/work/project/backstage/apks/com.girly.newwallpaper'
p420
aS'/home/srwe/work/project/backstage/apks/org.ametro_40'
p421
aS'/home/srwe/work/project/backstage/apks/com.apps.tomlinson.thefut17draftsimulator'
p422
aS'/home/srwe/work/project/backstage/apks/de.mobile.android.app'
p423
aS'/home/srwe/work/project/backstage/apks/com.rhmsoft.fm_v1.17.0'
p424
aS'/home/srwe/work/project/backstage/apks/com.baviux.pillreminder'
p425
aS'/home/srwe/work/project/backstage/apks/de.wetteronline.wetterapp_v2.3.3'
p426
aS'/home/srwe/work/project/backstage/apks/com.mapfactor.navigator_v1.3.24'
p427
aS'/home/srwe/work/project/backstage/apks/com.skype.raider'
p428
aS'/home/srwe/work/project/backstage/apks/learn.to.draw.glow.animal'
p429
aS'/home/srwe/work/project/backstage/apks/com.onemanwithcameralomo_v3.8.2'
p430
aS'/home/srwe/work/project/backstage/apks/learn.to.draw.glow.cartoon'
p431
aS'/home/srwe/work/project/backstage/apks/com.kaspersky.qrscanner'
p432
aS'/home/srwe/work/project/backstage/apks/com.tinder_v2.2.3'
p433
aS'/home/srwe/work/project/backstage/apks/cz.skodaauto.smartgate'
p434
aS'/home/srwe/work/project/backstage/apks/com.joeware.android.gpulumera'
p435
aS'/home/srwe/work/project/backstage/apks/com.apusapps.launcher_v1.4.0'
p436
aS'/home/srwe/work/project/backstage/apks/com.piriform.ccleaner'
p437
aS'/home/srwe/work/project/backstage/apks/com.cleanmaster.mguard'
p438
aS'/home/srwe/work/project/backstage/apks/de.schildbach.oeffi_v8.67'
p439
aS'/home/srwe/work/project/backstage/apks/codeadore.textgram'
p440
aS'/home/srwe/work/project/backstage/apks/com.doublerouble.counter'
p441
aS'/home/srwe/work/project/backstage/apks/com.vervigroup.deadline2do_v1.105'
p442
aS'/home/srwe/work/project/backstage/apks/com.frogsparks.mytrails_v1.4.5'
p443
aS'/home/srwe/work/project/backstage/apks/com.eabdrazakov.photomontage'
p444
aS'/home/srwe/work/project/backstage/apks/com.popularapp.periodcalendar'
p445
aS'/home/srwe/work/project/backstage/apks/com.google.android.apps.translate_v3.0.12'
p446
aS'/home/srwe/work/project/backstage/apks/com.futurebits.instamessage.free'
p447
aS'/home/srwe/work/project/backstage/apks/com.duolingo_v2.7.2'
p448
aS'/home/srwe/work/project/backstage/apks/com.ht.manga.gpanda_v1.3.4'
p449
aS'/home/srwe/work/project/backstage/apks/com.waze'
p450
aS'/home/srwe/work/project/backstage/apks/com.megalol.quotes_v1.42'
p451
aS'/home/srwe/work/project/backstage/apks/com.facebook.katana_v28.0.0.20.16'
p452
aS'/home/srwe/work/project/backstage/apks/com.ifap.arzneiaktuell_v2.2.3'
p453
aS'/home/srwe/work/project/backstage/apks/com.simplemobiletools.calendar_80'
p454
aS'/home/srwe/work/project/backstage/apks/com.deutschland.autoteile'
p455
aS'/home/srwe/work/project/backstage/apks/com.aoemoji.keyboard.plugin.emojistyle.osemoji'
p456
aS'/home/srwe/work/project/backstage/apks/com.geekslab.qrbarcodescanner.pro'
p457
aS'/home/srwe/work/project/backstage/apks/com.CartoonAvatar.PhotoMaker_v1.1'
p458
aS'/home/srwe/work/project/backstage/apks/com.sarnavsky.pasz.nightlight'
p459
aS'/home/srwe/work/project/backstage/apks/de.braverstudent.nichtlachen'
p460
aS'/home/srwe/work/project/backstage/apks/com.runtastic.android_v5.2.1'
p461
aS'/home/srwe/work/project/backstage/apks/com.rtlinteractive.rtlnow_v1.2.2'
p462
aS'/home/srwe/work/project/backstage/apks/com.pipcamera.activity'
p463
aS'/home/srwe/work/project/backstage/apks/com.zdf.android.mediathek_v2.3.1'
p464
aS'/home/srwe/work/project/backstage/apks/com.tripadvisor.tripadvisor'
p465
aS'/home/srwe/work/project/backstage/apks/mg.locations.track5'
p466
aS'/home/srwe/work/project/backstage/apks/com.futbin'
p467
aS'/home/srwe/work/project/backstage/apks/com.dougkeen.bart_33'
p468
aS'/home/srwe/work/project/backstage/apks/me.dbarnett.acastus_11'
p469
aS'/home/srwe/work/project/backstage/apks/com.majeur.applicationsinfo_7'
p470
aS'/home/srwe/work/project/backstage/apks/com.paypal.android.p2pmobile_v5.11.3'
p471
aS'/home/srwe/work/project/backstage/apks/com.ebay.mobile_v2.8.2.1'
p472
aS'/home/srwe/work/project/backstage/apks/com.jrtstudio.music'
p473
aS'/home/srwe/work/project/backstage/apks/de.nichtlustig.android_v1.0.6'
p474
aS'/home/srwe/work/project/backstage/apks/cz.aponia.bor3'
p475
aS'/home/srwe/work/project/backstage/apks/com.aviary.android.feather.plugins.stickers.free_stickers_v1.0'
p476
aS'/home/srwe/work/project/backstage/apks/de.arbeitsagentur.jobboerse'
p477
aS'/home/srwe/work/project/backstage/apks/com.astrovicapp.bigDaysLite'
p478
aS'/home/srwe/work/project/backstage/apks/de.gmx.mobile.android.mail_v1.58.6'
p479
aS'/home/srwe/work/project/backstage/apks/com.google.android.launcher_v1.1.0.1167994'
p480
aS'/home/srwe/work/project/backstage/apks/net.psyberia.offlinemaps_v1.18c'
p481
aS'/home/srwe/work/project/backstage/apks/cz.aponia.bor3.offlinemaps'
p482
aS'/home/srwe/work/project/backstage/apks/com.scee.psxandroid'
p483
aS'/home/srwe/work/project/backstage/apks/com.jb.gokeyboard_v2.13'
p484
aS'/home/srwe/work/project/backstage/apks/com.random.chat.app'
p485
aS'/home/srwe/work/project/backstage/apks/com.twitter.android_v5.24.0'
p486
aS'/home/srwe/work/project/backstage/apks/com.netbiscuits.kicker_v3.2.3'
p487
aS'/home/srwe/work/project/backstage/apks/com.farproc.wifi.connecter'
p488
aS'/home/srwe/work/project/backstage/apks/com.simplemobiletools.camera_43'
p489
aS'/home/srwe/work/project/backstage/apks/com.wetter.androidclient_v1.4.9.1'
p490
aS'/home/srwe/work/project/backstage/apks/com.google.earth_v7.1.3.1255'
p491
aS'/home/srwe/work/project/backstage/apks/com.knuddels.android'
p492
aS'/home/srwe/work/project/backstage/apks/com.devexpert.weather_v4.5.2'
p493
aS'/home/srwe/work/project/backstage/apks/com.myfitnesspal.android'
p494
aS'/home/srwe/work/project/backstage/apks/de.hafas.android.db_v15.04.p06.00'
p495
aS'/home/srwe/work/project/backstage/apks/de.pappermint.notfallsani_v1.2.1'
p496
aS'/home/srwe/work/project/backstage/apks/net.zedge.android'
p497
aS'/home/srwe/work/project/backstage/apks/com.levelup.brightweather_v1.05'
p498
aS'/home/srwe/work/project/backstage/apks/com.duolingo'
p499
aS'/home/srwe/work/project/backstage/apks/de.spiegel.android.app.spon'
p500
aS'/home/srwe/work/project/backstage/apks/com.evgit.sochi2014olympics_v1.9.4'
p501
aS'/home/srwe/work/project/backstage/apks/de.bayercropscience'
p502
aS'/home/srwe/work/project/backstage/apks/com.g8n8.pregnancytracker'
p503
aS'/home/srwe/work/project/backstage/apks/com.oldguide.inter.tipstekken'
p504
aS'/home/srwe/work/project/backstage/apks/com.ebay.mobile'
p505
aS'/home/srwe/work/project/backstage/apks/de.k3b.android.androFotoFinder_30'
p506
aS'/home/srwe/work/project/backstage/apks/com.lumoslabs.lumosity_v1.0.109'
p507
aS'/home/srwe/work/project/backstage/apks/com.ng.dailynews_v1.13'
p508
aS'/home/srwe/work/project/backstage/apks/com.quvideo.xiaoying'
p509
aS'/home/srwe/work/project/backstage/apks/com.mixvibes.crossdjfree_v1.4.6'
p510
aS'/home/srwe/work/project/backstage/apks/com.babbel.mobile.android.en_v4.3.3'
p511
aS'/home/srwe/work/project/backstage/apks/com.arcsoft.perfect365'
p512
aS'/home/srwe/work/project/backstage/apks/com.netbiscuits.bild.android_v3.5.6'
p513
aS'/home/srwe/work/project/backstage/apks/arlind.Shqip_v2.0'
p514
aS'/home/srwe/work/project/backstage/apks/de.is24.android_v4.6.2'
p515
aS'/home/srwe/work/project/backstage/apks/com.adobe.reader_v11.5.0.1'
p516
aS'/home/srwe/work/project/backstage/apks/com.whatsapp.wallpaper_v2'
p517
aS'/home/srwe/work/project/backstage/apks/ch.threema.qrscannerplugin_v1.1'
p518
aS'/home/srwe/work/project/backstage/apks/com.fashion.tattoo.name.my.photo.editor'
p519
aS'/home/srwe/work/project/backstage/apks/com.girlym.beautifulgirlimages'
p520
aS'/home/srwe/work/project/backstage/apks/arity.calculator_27'
p521
aS'/home/srwe/work/project/backstage/apks/de.dasoertliche.android_v3.11'
p522
aS'/home/srwe/work/project/backstage/apks/mbinc12.mb32b'
p523
aS'/home/srwe/work/project/backstage/apks/com.ufo.disease'
p524
aS'/home/srwe/work/project/backstage/apks/com.trivago_v1.9.2'
p525
aS'/home/srwe/work/project/backstage/apks/de.zeit.online_v1.1'
p526
aS'/home/srwe/work/project/backstage/apks/com.babycenter.pregnancytracker'
p527
aS'/home/srwe/work/project/backstage/apks/com.AnatomyLearning.Anatomy3DViewer3_v1.0'
p528
aS'/home/srwe/work/project/backstage/apks/de.blitzer_v2.7.4'
p529
aS'/home/srwe/work/project/backstage/apks/de.aid.nuetzlinge'
p530
aS'/home/srwe/work/project/backstage/apks/com.rtli.clipfish_v3.2'
p531
aS'/home/srwe/work/project/backstage/apks/com.surpax.ledflashlight.panel'
p532
aS'/home/srwe/work/project/backstage/apks/media.music.musicplayer.mp3player'
p533
aS'/home/srwe/work/project/backstage/apks/com.dianxinos.dxbs_v3.8.5'
p534
aS'/home/srwe/work/project/backstage/apks/com.jb.zcamera'
p535
aS'/home/srwe/work/project/backstage/apks/de.wortundbildverlag.mobil.apotheke_v5.1.1'
p536
aS'/home/srwe/work/project/backstage/apks/org.leo.android.dict_v5.3'
p537
aS'/home/srwe/work/project/backstage/apks/de.dfbmedien.FussballDE'
p538
aS'/home/srwe/work/project/backstage/apks/com.bookmark.money_vandroid-2.3.1'
p539
aS'/home/srwe/work/project/backstage/apks/com.github.axet.callrecorder_87'
p540
aS'/home/srwe/work/project/backstage/apks/com.google.android.keep_v2.3.02'
p541
aS'/home/srwe/work/project/backstage/apks/com.gau.go.launcherex.gowidget.weatherwidget'
p542
aS'/home/srwe/work/project/backstage/apks/com.liwenwen20131497.christmas_v2.1'
p543
aS'/home/srwe/work/project/backstage/apks/com.netflix.mediaclient'
p544
aS'/home/srwe/work/project/backstage/apks/com.outfit7.talkingangelafree_v2.2'
p545
aS'/home/srwe/work/project/backstage/apks/animaonline.android.wikiexplorer_v1.5.5'
p546
aS'/home/srwe/work/project/backstage/apks/pr0gram3r72.ClashOfClans_Map_v1'
p547
aS'/home/srwe/work/project/backstage/apks/com.devuni.flashlight_v5.1.5'
p548
aS'/home/srwe/work/project/backstage/apks/de.lineas.lit.ntv.android_v4.0.3'
p549
aS'/home/srwe/work/project/backstage/apks/com.girly.newwallpaper'
p550
aS'/home/srwe/work/project/backstage/apks/org.ametro_40'
p551
aS'/home/srwe/work/project/backstage/apks/com.apps.tomlinson.thefut17draftsimulator'
p552
aS'/home/srwe/work/project/backstage/apks/de.mobile.android.app'
p553
aS'/home/srwe/work/project/backstage/apks/com.rhmsoft.fm_v1.17.0'
p554
aS'/home/srwe/work/project/backstage/apks/com.baviux.pillreminder'
p555
aS'/home/srwe/work/project/backstage/apks/de.wetteronline.wetterapp_v2.3.3'
p556
aS'/home/srwe/work/project/backstage/apks/com.mapfactor.navigator_v1.3.24'
p557
aS'/home/srwe/work/project/backstage/apks/com.skype.raider'
p558
aS'/home/srwe/work/project/backstage/apks/learn.to.draw.glow.animal'
p559
aS'/home/srwe/work/project/backstage/apks/com.onemanwithcameralomo_v3.8.2'
p560
aS'/home/srwe/work/project/backstage/apks/learn.to.draw.glow.cartoon'
p561
aS'/home/srwe/work/project/backstage/apks/com.kaspersky.qrscanner'
p562
aS'/home/srwe/work/project/backstage/apks/com.tinder_v2.2.3'
p563
aS'/home/srwe/work/project/backstage/apks/cz.skodaauto.smartgate'
p564
aS'/home/srwe/work/project/backstage/apks/com.joeware.android.gpulumera'
p565
aS'/home/srwe/work/project/backstage/apks/com.apusapps.launcher_v1.4.0'
p566
aS'/home/srwe/work/project/backstage/apks/com.piriform.ccleaner'
p567
aS'/home/srwe/work/project/backstage/apks/com.cleanmaster.mguard'
p568
aS'/home/srwe/work/project/backstage/apks/de.schildbach.oeffi_v8.67'
p569
aS'/home/srwe/work/project/backstage/apks/codeadore.textgram'
p570
aS'/home/srwe/work/project/backstage/apks/com.doublerouble.counter'
p571
aS'/home/srwe/work/project/backstage/apks/com.vervigroup.deadline2do_v1.105'
p572
aS'/home/srwe/work/project/backstage/apks/com.frogsparks.mytrails_v1.4.5'
p573
aS'/home/srwe/work/project/backstage/apks/com.eabdrazakov.photomontage'
p574
aS'/home/srwe/work/project/backstage/apks/com.popularapp.periodcalendar'
p575
aS'/home/srwe/work/project/backstage/apks/com.google.android.apps.translate_v3.0.12'
p576
aS'/home/srwe/work/project/backstage/apks/com.futurebits.instamessage.free'
p577
aS'/home/srwe/work/project/backstage/apks/com.duolingo_v2.7.2'
p578
aS'/home/srwe/work/project/backstage/apks/com.ht.manga.gpanda_v1.3.4'
p579
aS'/home/srwe/work/project/backstage/apks/com.waze'
p580
aS'/home/srwe/work/project/backstage/apks/com.megalol.quotes_v1.42'
p581
aS'/home/srwe/work/project/backstage/apks/com.facebook.katana_v28.0.0.20.16'
p582
aS'/home/srwe/work/project/backstage/apks/com.ifap.arzneiaktuell_v2.2.3'
p583
aS'/home/srwe/work/project/backstage/apks/com.simplemobiletools.calendar_80'
p584
aS'/home/srwe/work/project/backstage/apks/com.deutschland.autoteile'
p585
aS'/home/srwe/work/project/backstage/apks/com.aoemoji.keyboard.plugin.emojistyle.osemoji'
p586
aS'/home/srwe/work/project/backstage/apks/com.geekslab.qrbarcodescanner.pro'
p587
aS'/home/srwe/work/project/backstage/apks/com.CartoonAvatar.PhotoMaker_v1.1'
p588
aS'/home/srwe/work/project/backstage/apks/com.sarnavsky.pasz.nightlight'
p589
aS'/home/srwe/work/project/backstage/apks/de.braverstudent.nichtlachen'
p590
aS'/home/srwe/work/project/backstage/apks/com.runtastic.android_v5.2.1'
p591
aS'/home/srwe/work/project/backstage/apks/com.rtlinteractive.rtlnow_v1.2.2'
p592
aS'/home/srwe/work/project/backstage/apks/com.pipcamera.activity'
p593
aS'/home/srwe/work/project/backstage/apks/com.zdf.android.mediathek_v2.3.1'
p594
aS'/home/srwe/work/project/backstage/apks/com.tripadvisor.tripadvisor'
p595
aS'/home/srwe/work/project/backstage/apks/mg.locations.track5'
p596
aS'/home/srwe/work/project/backstage/apks/com.futbin'
p597
aS'/home/srwe/work/project/backstage/apks/com.dougkeen.bart_33'
p598
aS'/home/srwe/work/project/backstage/apks/me.dbarnett.acastus_11'
p599
aS'/home/srwe/work/project/backstage/apks/com.majeur.applicationsinfo_7'
p600
aS'/home/srwe/work/project/backstage/apks/com.paypal.android.p2pmobile_v5.11.3'
p601
aS'/home/srwe/work/project/backstage/apks/com.ebay.mobile_v2.8.2.1'
p602
aS'/home/srwe/work/project/backstage/apks/com.jrtstudio.music'
p603
aS'/home/srwe/work/project/backstage/apks/de.nichtlustig.android_v1.0.6'
p604
aS'/home/srwe/work/project/backstage/apks/cz.aponia.bor3'
p605
aS'/home/srwe/work/project/backstage/apks/com.aviary.android.feather.plugins.stickers.free_stickers_v1.0'
p606
aS'/home/srwe/work/project/backstage/apks/de.arbeitsagentur.jobboerse'
p607
aS'/home/srwe/work/project/backstage/apks/com.astrovicapp.bigDaysLite'
p608
aS'/home/srwe/work/project/backstage/apks/de.gmx.mobile.android.mail_v1.58.6'
p609
aS'/home/srwe/work/project/backstage/apks/com.google.android.launcher_v1.1.0.1167994'
p610
aS'/home/srwe/work/project/backstage/apks/net.psyberia.offlinemaps_v1.18c'
p611
aS'/home/srwe/work/project/backstage/apks/cz.aponia.bor3.offlinemaps'
p612
aS'/home/srwe/work/project/backstage/apks/com.scee.psxandroid'
p613
aS'/home/srwe/work/project/backstage/apks/com.jb.gokeyboard_v2.13'
p614
aS'/home/srwe/work/project/backstage/apks/com.random.chat.app'
p615
aS'/home/srwe/work/project/backstage/apks/com.twitter.android_v5.24.0'
p616
aS'/home/srwe/work/project/backstage/apks/com.netbiscuits.kicker_v3.2.3'
p617
aS'/home/srwe/work/project/backstage/apks/com.farproc.wifi.connecter'
p618
aS'/home/srwe/work/project/backstage/apks/com.simplemobiletools.camera_43'
p619
aS'/home/srwe/work/project/backstage/apks/com.wetter.androidclient_v1.4.9.1'
p620
aS'/home/srwe/work/project/backstage/apks/com.google.earth_v7.1.3.1255'
p621
aS'/home/srwe/work/project/backstage/apks/com.knuddels.android'
p622
aS'/home/srwe/work/project/backstage/apks/com.devexpert.weather_v4.5.2'
p623
aS'/home/srwe/work/project/backstage/apks/com.myfitnesspal.android'
p624
aS'/home/srwe/work/project/backstage/apks/de.hafas.android.db_v15.04.p06.00'
p625
aS'/home/srwe/work/project/backstage/apks/de.pappermint.notfallsani_v1.2.1'
p626
aS'/home/srwe/work/project/backstage/apks/net.zedge.android'
p627
aS'/home/srwe/work/project/backstage/apks/com.levelup.brightweather_v1.05'
p628
aS'/home/srwe/work/project/backstage/apks/com.duolingo'
p629
aS'/home/srwe/work/project/backstage/apks/de.spiegel.android.app.spon'
p630
aS'/home/srwe/work/project/backstage/apks/com.evgit.sochi2014olympics_v1.9.4'
p631
aS'/home/srwe/work/project/backstage/apks/de.bayercropscience'
p632
aS'/home/srwe/work/project/backstage/apks/com.g8n8.pregnancytracker'
p633
aS'/home/srwe/work/project/backstage/apks/com.oldguide.inter.tipstekken'
p634
aS'/home/srwe/work/project/backstage/apks/com.ebay.mobile'
p635
aS'/home/srwe/work/project/backstage/apks/de.k3b.android.androFotoFinder_30'
p636
aS'/home/srwe/work/project/backstage/apks/com.lumoslabs.lumosity_v1.0.109'
p637
aS'/home/srwe/work/project/backstage/apks/com.ng.dailynews_v1.13'
p638
aS'/home/srwe/work/project/backstage/apks/com.quvideo.xiaoying'
p639
aS'/home/srwe/work/project/backstage/apks/com.mixvibes.crossdjfree_v1.4.6'
p640
aS'/home/srwe/work/project/backstage/apks/com.babbel.mobile.android.en_v4.3.3'
p641
aS'/home/srwe/work/project/backstage/apks/com.arcsoft.perfect365'
p642
aS'/home/srwe/work/project/backstage/apks/com.netbiscuits.bild.android_v3.5.6'
p643
aS'/home/srwe/work/project/backstage/apks/arlind.Shqip_v2.0'
p644
aS'/home/srwe/work/project/backstage/apks/de.is24.android_v4.6.2'
p645
aS'/home/srwe/work/project/backstage/apks/com.adobe.reader_v11.5.0.1'
p646
aS'/home/srwe/work/project/backstage/apks/com.whatsapp.wallpaper_v2'
p647
aS'/home/srwe/work/project/backstage/apks/ch.threema.qrscannerplugin_v1.1'
p648
aS'/home/srwe/work/project/backstage/apks/com.fashion.tattoo.name.my.photo.editor'
p649
aS'/home/srwe/work/project/backstage/apks/com.girlym.beautifulgirlimages'
p650
aS'/home/srwe/work/project/backstage/apks/arity.calculator_27'
p651
aS'/home/srwe/work/project/backstage/apks/de.dasoertliche.android_v3.11'
p652
aS'/home/srwe/work/project/backstage/apks/mbinc12.mb32b'
p653
aS'/home/srwe/work/project/backstage/apks/com.ufo.disease'
p654
aS'/home/srwe/work/project/backstage/apks/com.trivago_v1.9.2'
p655
aS'/home/srwe/work/project/backstage/apks/de.zeit.online_v1.1'
p656
aS'/home/srwe/work/project/backstage/apks/com.babycenter.pregnancytracker'
p657
aS'/home/srwe/work/project/backstage/apks/com.AnatomyLearning.Anatomy3DViewer3_v1.0'
p658
aS'/home/srwe/work/project/backstage/apks/de.blitzer_v2.7.4'
p659
aS'/home/srwe/work/project/backstage/apks/de.aid.nuetzlinge'
p660
aS'/home/srwe/work/project/backstage/apks/com.rtli.clipfish_v3.2'
p661
aS'/home/srwe/work/project/backstage/apks/com.surpax.ledflashlight.panel'
p662
aS'/home/srwe/work/project/backstage/apks/media.music.musicplayer.mp3player'
p663
aS'/home/srwe/work/project/backstage/apks/com.dianxinos.dxbs_v3.8.5'
p664
aS'/home/srwe/work/project/backstage/apks/com.jb.zcamera'
p665
aS'/home/srwe/work/project/backstage/apks/de.wortundbildverlag.mobil.apotheke_v5.1.1'
p666
aS'/home/srwe/work/project/backstage/apks/org.leo.android.dict_v5.3'
p667
aS'/home/srwe/work/project/backstage/apks/de.dfbmedien.FussballDE'
p668
aS'/home/srwe/work/project/backstage/apks/com.bookmark.money_vandroid-2.3.1'
p669
aS'/home/srwe/work/project/backstage/apks/com.github.axet.callrecorder_87'
p670
aS'/home/srwe/work/project/backstage/apks/com.google.android.keep_v2.3.02'
p671
aS'/home/srwe/work/project/backstage/apks/com.gau.go.launcherex.gowidget.weatherwidget'
p672
aS'/home/srwe/work/project/backstage/apks/com.liwenwen20131497.christmas_v2.1'
p673
aS'/home/srwe/work/project/backstage/apks/com.netflix.mediaclient'
p674
aS'/home/srwe/work/project/backstage/apks/com.outfit7.talkingangelafree_v2.2'
p675
aS'/home/srwe/work/project/backstage/apks/animaonline.android.wikiexplorer_v1.5.5'
p676
aS'/home/srwe/work/project/backstage/apks/pr0gram3r72.ClashOfClans_Map_v1'
p677
aS'/home/srwe/work/project/backstage/apks/com.devuni.flashlight_v5.1.5'
p678
aS'/home/srwe/work/project/backstage/apks/de.lineas.lit.ntv.android_v4.0.3'
p679
aS'/home/srwe/work/project/backstage/apks/com.girly.newwallpaper'
p680
aS'/home/srwe/work/project/backstage/apks/org.ametro_40'
p681
aS'/home/srwe/work/project/backstage/apks/com.apps.tomlinson.thefut17draftsimulator'
p682
aS'/home/srwe/work/project/backstage/apks/de.mobile.android.app'
p683
aS'/home/srwe/work/project/backstage/apks/com.rhmsoft.fm_v1.17.0'
p684
aS'/home/srwe/work/project/backstage/apks/com.baviux.pillreminder'
p685
aS'/home/srwe/work/project/backstage/apks/de.wetteronline.wetterapp_v2.3.3'
p686
aS'/home/srwe/work/project/backstage/apks/com.mapfactor.navigator_v1.3.24'
p687
aS'/home/srwe/work/project/backstage/apks/com.skype.raider'
p688
aS'/home/srwe/work/project/backstage/apks/learn.to.draw.glow.animal'
p689
aS'/home/srwe/work/project/backstage/apks/com.onemanwithcameralomo_v3.8.2'
p690
aS'/home/srwe/work/project/backstage/apks/learn.to.draw.glow.cartoon'
p691
aS'/home/srwe/work/project/backstage/apks/com.kaspersky.qrscanner'
p692
aS'/home/srwe/work/project/backstage/apks/com.tinder_v2.2.3'
p693
aS'/home/srwe/work/project/backstage/apks/cz.skodaauto.smartgate'
p694
aS'/home/srwe/work/project/backstage/apks/com.joeware.android.gpulumera'
p695
aS'/home/srwe/work/project/backstage/apks/com.apusapps.launcher_v1.4.0'
p696
aS'/home/srwe/work/project/backstage/apks/com.piriform.ccleaner'
p697
aS'/home/srwe/work/project/backstage/apks/com.cleanmaster.mguard'
p698
aS'/home/srwe/work/project/backstage/apks/de.schildbach.oeffi_v8.67'
p699
aS'/home/srwe/work/project/backstage/apks/codeadore.textgram'
p700
aS'/home/srwe/work/project/backstage/apks/com.doublerouble.counter'
p701
aS'/home/srwe/work/project/backstage/apks/com.vervigroup.deadline2do_v1.105'
p702
aS'/home/srwe/work/project/backstage/apks/com.frogsparks.mytrails_v1.4.5'
p703
aS'/home/srwe/work/project/backstage/apks/com.eabdrazakov.photomontage'
p704
aS'/home/srwe/work/project/backstage/apks/com.popularapp.periodcalendar'
p705
aS'/home/srwe/work/project/backstage/apks/com.google.android.apps.translate_v3.0.12'
p706
aS'/home/srwe/work/project/backstage/apks/com.futurebits.instamessage.free'
p707
aS'/home/srwe/work/project/backstage/apks/com.duolingo_v2.7.2'
p708
aS'/home/srwe/work/project/backstage/apks/com.ht.manga.gpanda_v1.3.4'
p709
aS'/home/srwe/work/project/backstage/apks/com.waze'
p710
aS'/home/srwe/work/project/backstage/apks/com.megalol.quotes_v1.42'
p711
aS'/home/srwe/work/project/backstage/apks/com.facebook.katana_v28.0.0.20.16'
p712
aS'/home/srwe/work/project/backstage/apks/com.ifap.arzneiaktuell_v2.2.3'
p713
aS'/home/srwe/work/project/backstage/apks/com.simplemobiletools.calendar_80'
p714
aS'/home/srwe/work/project/backstage/apks/com.deutschland.autoteile'
p715
aS'/home/srwe/work/project/backstage/apks/com.aoemoji.keyboard.plugin.emojistyle.osemoji'
p716
aS'/home/srwe/work/project/backstage/apks/com.geekslab.qrbarcodescanner.pro'
p717
aS'/home/srwe/work/project/backstage/apks/com.CartoonAvatar.PhotoMaker_v1.1'
p718
aS'/home/srwe/work/project/backstage/apks/com.sarnavsky.pasz.nightlight'
p719
aS'/home/srwe/work/project/backstage/apks/de.braverstudent.nichtlachen'
p720
aS'/home/srwe/work/project/backstage/apks/com.runtastic.android_v5.2.1'
p721
aS'/home/srwe/work/project/backstage/apks/com.rtlinteractive.rtlnow_v1.2.2'
p722
aS'/home/srwe/work/project/backstage/apks/com.pipcamera.activity'
p723
aS'/home/srwe/work/project/backstage/apks/com.zdf.android.mediathek_v2.3.1'
p724
aS'/home/srwe/work/project/backstage/apks/com.tripadvisor.tripadvisor'
p725
aS'/home/srwe/work/project/backstage/apks/mg.locations.track5'
p726
aS'/home/srwe/work/project/backstage/apks/com.futbin'
p727
aS'/home/srwe/work/project/backstage/apks/com.dougkeen.bart_33'
p728
aS'/home/srwe/work/project/backstage/apks/me.dbarnett.acastus_11'
p729
aS'/home/srwe/work/project/backstage/apks/com.majeur.applicationsinfo_7'
p730
aS'/home/srwe/work/project/backstage/apks/com.paypal.android.p2pmobile_v5.11.3'
p731
aS'/home/srwe/work/project/backstage/apks/com.ebay.mobile_v2.8.2.1'
p732
aS'/home/srwe/work/project/backstage/apks/com.jrtstudio.music'
p733
aS'/home/srwe/work/project/backstage/apks/de.nichtlustig.android_v1.0.6'
p734
aS'/home/srwe/work/project/backstage/apks/cz.aponia.bor3'
p735
aS'/home/srwe/work/project/backstage/apks/com.aviary.android.feather.plugins.stickers.free_stickers_v1.0'
p736
aS'/home/srwe/work/project/backstage/apks/de.arbeitsagentur.jobboerse'
p737
aS'/home/srwe/work/project/backstage/apks/com.astrovicapp.bigDaysLite'
p738
aS'/home/srwe/work/project/backstage/apks/de.gmx.mobile.android.mail_v1.58.6'
p739
aS'/home/srwe/work/project/backstage/apks/com.google.android.launcher_v1.1.0.1167994'
p740
aS'/home/srwe/work/project/backstage/apks/net.psyberia.offlinemaps_v1.18c'
p741
aS'/home/srwe/work/project/backstage/apks/cz.aponia.bor3.offlinemaps'
p742
aS'/home/srwe/work/project/backstage/apks/com.scee.psxandroid'
p743
aS'/home/srwe/work/project/backstage/apks/com.jb.gokeyboard_v2.13'
p744
aS'/home/srwe/work/project/backstage/apks/com.random.chat.app'
p745
aS'/home/srwe/work/project/backstage/apks/com.twitter.android_v5.24.0'
p746
aS'/home/srwe/work/project/backstage/apks/com.netbiscuits.kicker_v3.2.3'
p747
aS'/home/srwe/work/project/backstage/apks/com.farproc.wifi.connecter'
p748
aS'/home/srwe/work/project/backstage/apks/com.simplemobiletools.camera_43'
p749
aS'/home/srwe/work/project/backstage/apks/com.wetter.androidclient_v1.4.9.1'
p750
aS'/home/srwe/work/project/backstage/apks/com.google.earth_v7.1.3.1255'
p751
aS'/home/srwe/work/project/backstage/apks/com.knuddels.android'
p752
aS'/home/srwe/work/project/backstage/apks/com.devexpert.weather_v4.5.2'
p753
aS'/home/srwe/work/project/backstage/apks/com.myfitnesspal.android'
p754
aS'/home/srwe/work/project/backstage/apks/de.hafas.android.db_v15.04.p06.00'
p755
aS'/home/srwe/work/project/backstage/apks/de.pappermint.notfallsani_v1.2.1'
p756
aS'/home/srwe/work/project/backstage/apks/net.zedge.android'
p757
aS'/home/srwe/work/project/backstage/apks/com.levelup.brightweather_v1.05'
p758
aS'/home/srwe/work/project/backstage/apks/com.duolingo'
p759
aS'/home/srwe/work/project/backstage/apks/de.spiegel.android.app.spon'
p760
aS'/home/srwe/work/project/backstage/apks/com.evgit.sochi2014olympics_v1.9.4'
p761
aS'/home/srwe/work/project/backstage/apks/de.bayercropscience'
p762
aS'/home/srwe/work/project/backstage/apks/com.g8n8.pregnancytracker'
p763
aS'/home/srwe/work/project/backstage/apks/com.oldguide.inter.tipstekken'
p764
aS'/home/srwe/work/project/backstage/apks/com.ebay.mobile'
p765
aS'/home/srwe/work/project/backstage/apks/de.k3b.android.androFotoFinder_30'
p766
aS'/home/srwe/work/project/backstage/apks/com.lumoslabs.lumosity_v1.0.109'
p767
aS'/home/srwe/work/project/backstage/apks/com.ng.dailynews_v1.13'
p768
aS'/home/srwe/work/project/backstage/apks/com.quvideo.xiaoying'
p769
aS'/home/srwe/work/project/backstage/apks/com.mixvibes.crossdjfree_v1.4.6'
p770
aS'/home/srwe/work/project/backstage/apks/com.babbel.mobile.android.en_v4.3.3'
p771
aS'/home/srwe/work/project/backstage/apks/com.arcsoft.perfect365'
p772
aS'/home/srwe/work/project/backstage/apks/com.netbiscuits.bild.android_v3.5.6'
p773
aS'/home/srwe/work/project/backstage/apks/arlind.Shqip_v2.0'
p774
aS'/home/srwe/work/project/backstage/apks/de.is24.android_v4.6.2'
p775
aS'/home/srwe/work/project/backstage/apks/com.adobe.reader_v11.5.0.1'
p776
aS'/home/srwe/work/project/backstage/apks/com.whatsapp.wallpaper_v2'
p777
aS'/home/srwe/work/project/backstage/apks/ch.threema.qrscannerplugin_v1.1'
p778
aS'/home/srwe/work/project/backstage/apks/com.fashion.tattoo.name.my.photo.editor'
p779
aS'/home/srwe/work/project/backstage/apks/com.girlym.beautifulgirlimages'
p780
aS'/home/srwe/work/project/backstage/apks/arity.calculator_27'
p781
aS'/home/srwe/work/project/backstage/apks/de.dasoertliche.android_v3.11'
p782
aS'/home/srwe/work/project/backstage/apks/mbinc12.mb32b'
p783
aS'/home/srwe/work/project/backstage/apks/com.ufo.disease'
p784
aS'/home/srwe/work/project/backstage/apks/com.trivago_v1.9.2'
p785
aS'/home/srwe/work/project/backstage/apks/de.zeit.online_v1.1'
p786
aS'/home/srwe/work/project/backstage/apks/com.babycenter.pregnancytracker'
p787
aS'/home/srwe/work/project/backstage/apks/com.AnatomyLearning.Anatomy3DViewer3_v1.0'
p788
aS'/home/srwe/work/project/backstage/apks/de.blitzer_v2.7.4'
p789
aS'/home/srwe/work/project/backstage/apks/de.aid.nuetzlinge'
p790
aS'/home/srwe/work/project/backstage/apks/com.rtli.clipfish_v3.2'
p791
aS'/home/srwe/work/project/backstage/apks/com.surpax.ledflashlight.panel'
p792
aS'/home/srwe/work/project/backstage/apks/media.music.musicplayer.mp3player'
p793
aS'/home/srwe/work/project/backstage/apks/com.dianxinos.dxbs_v3.8.5'
p794
aS'/home/srwe/work/project/backstage/apks/com.jb.zcamera'
p795
aS'/home/srwe/work/project/backstage/apks/de.wortundbildverlag.mobil.apotheke_v5.1.1'
p796
aS'/home/srwe/work/project/backstage/apks/org.leo.android.dict_v5.3'
p797
aS'/home/srwe/work/project/backstage/apks/de.dfbmedien.FussballDE'
p798
aS'/home/srwe/work/project/backstage/apks/com.bookmark.money_vandroid-2.3.1'
p799
aS'/home/srwe/work/project/backstage/apks/com.github.axet.callrecorder_87'
p800
aS'/home/srwe/work/project/backstage/apks/com.google.android.keep_v2.3.02'
p801
aS'/home/srwe/work/project/backstage/apks/com.gau.go.launcherex.gowidget.weatherwidget'
p802
aS'/home/srwe/work/project/backstage/apks/com.liwenwen20131497.christmas_v2.1'
p803
aS'/home/srwe/work/project/backstage/apks/com.netflix.mediaclient'
p804
aS'/home/srwe/work/project/backstage/apks/com.outfit7.talkingangelafree_v2.2'
p805
aS'/home/srwe/work/project/backstage/apks/animaonline.android.wikiexplorer_v1.5.5'
p806
aS'/home/srwe/work/project/backstage/apks/pr0gram3r72.ClashOfClans_Map_v1'
p807
aS'/home/srwe/work/project/backstage/apks/com.devuni.flashlight_v5.1.5'
p808
aS'/home/srwe/work/project/backstage/apks/de.lineas.lit.ntv.android_v4.0.3'
p809
aS'/home/srwe/work/project/backstage/apks/com.girly.newwallpaper'
p810
aS'/home/srwe/work/project/backstage/apks/org.ametro_40'
p811
aS'/home/srwe/work/project/backstage/apks/com.apps.tomlinson.thefut17draftsimulator'
p812
aS'/home/srwe/work/project/backstage/apks/de.mobile.android.app'
p813
aS'/home/srwe/work/project/backstage/apks/com.rhmsoft.fm_v1.17.0'
p814
aS'/home/srwe/work/project/backstage/apks/com.baviux.pillreminder'
p815
aS'/home/srwe/work/project/backstage/apks/de.wetteronline.wetterapp_v2.3.3'
p816
aS'/home/srwe/work/project/backstage/apks/com.mapfactor.navigator_v1.3.24'
p817
aS'/home/srwe/work/project/backstage/apks/com.skype.raider'
p818
aS'/home/srwe/work/project/backstage/apks/learn.to.draw.glow.animal'
p819
aS'/home/srwe/work/project/backstage/apks/com.onemanwithcameralomo_v3.8.2'
p820
aS'/home/srwe/work/project/backstage/apks/learn.to.draw.glow.cartoon'
p821
aS'/home/srwe/work/project/backstage/apks/com.kaspersky.qrscanner'
p822
aS'/home/srwe/work/project/backstage/apks/com.tinder_v2.2.3'
p823
aS'/home/srwe/work/project/backstage/apks/cz.skodaauto.smartgate'
p824
aS'/home/srwe/work/project/backstage/apks/com.joeware.android.gpulumera'
p825
aS'/home/srwe/work/project/backstage/apks/com.apusapps.launcher_v1.4.0'
p826
aS'/home/srwe/work/project/backstage/apks/com.piriform.ccleaner'
p827
aS'/home/srwe/work/project/backstage/apks/com.cleanmaster.mguard'
p828
aS'/home/srwe/work/project/backstage/apks/de.schildbach.oeffi_v8.67'
p829
aS'/home/srwe/work/project/backstage/apks/codeadore.textgram'
p830
aS'/home/srwe/work/project/backstage/apks/com.doublerouble.counter'
p831
aS'/home/srwe/work/project/backstage/apks/com.vervigroup.deadline2do_v1.105'
p832
aS'/home/srwe/work/project/backstage/apks/com.frogsparks.mytrails_v1.4.5'
p833
aS'/home/srwe/work/project/backstage/apks/com.eabdrazakov.photomontage'
p834
aS'/home/srwe/work/project/backstage/apks/com.popularapp.periodcalendar'
p835
aS'/home/srwe/work/project/backstage/apks/com.google.android.apps.translate_v3.0.12'
p836
aS'/home/srwe/work/project/backstage/apks/com.futurebits.instamessage.free'
p837
aS'/home/srwe/work/project/backstage/apks/com.duolingo_v2.7.2'
p838
aS'/home/srwe/work/project/backstage/apks/com.ht.manga.gpanda_v1.3.4'
p839
aS'/home/srwe/work/project/backstage/apks/com.waze'
p840
aS'/home/srwe/work/project/backstage/apks/com.megalol.quotes_v1.42'
p841
aS'/home/srwe/work/project/backstage/apks/com.facebook.katana_v28.0.0.20.16'
p842
aS'/home/srwe/work/project/backstage/apks/com.ifap.arzneiaktuell_v2.2.3'
p843
aS'/home/srwe/work/project/backstage/apks/com.simplemobiletools.calendar_80'
p844
aS'/home/srwe/work/project/backstage/apks/com.deutschland.autoteile'
p845
aS'/home/srwe/work/project/backstage/apks/com.aoemoji.keyboard.plugin.emojistyle.osemoji'
p846
aS'/home/srwe/work/project/backstage/apks/com.geekslab.qrbarcodescanner.pro'
p847
aS'/home/srwe/work/project/backstage/apks/com.CartoonAvatar.PhotoMaker_v1.1'
p848
aS'/home/srwe/work/project/backstage/apks/com.sarnavsky.pasz.nightlight'
p849
aS'/home/srwe/work/project/backstage/apks/de.braverstudent.nichtlachen'
p850
aS'/home/srwe/work/project/backstage/apks/com.runtastic.android_v5.2.1'
p851
aS'/home/srwe/work/project/backstage/apks/com.rtlinteractive.rtlnow_v1.2.2'
p852
aS'/home/srwe/work/project/backstage/apks/com.pipcamera.activity'
p853
aS'/home/srwe/work/project/backstage/apks/com.zdf.android.mediathek_v2.3.1'
p854
aS'/home/srwe/work/project/backstage/apks/com.tripadvisor.tripadvisor'
p855
aS'/home/srwe/work/project/backstage/apks/mg.locations.track5'
p856
aS'/home/srwe/work/project/backstage/apks/com.futbin'
p857
aS'/home/srwe/work/project/backstage/apks/com.dougkeen.bart_33'
p858
aS'/home/srwe/work/project/backstage/apks/me.dbarnett.acastus_11'
p859
aS'/home/srwe/work/project/backstage/apks/com.majeur.applicationsinfo_7'
p860
aS'/home/srwe/work/project/backstage/apks/com.paypal.android.p2pmobile_v5.11.3'
p861
aS'/home/srwe/work/project/backstage/apks/com.ebay.mobile_v2.8.2.1'
p862
aS'/home/srwe/work/project/backstage/apks/com.jrtstudio.music'
p863
aS'/home/srwe/work/project/backstage/apks/de.nichtlustig.android_v1.0.6'
p864
aS'/home/srwe/work/project/backstage/apks/cz.aponia.bor3'
p865
aS'/home/srwe/work/project/backstage/apks/com.aviary.android.feather.plugins.stickers.free_stickers_v1.0'
p866
aS'/home/srwe/work/project/backstage/apks/de.arbeitsagentur.jobboerse'
p867
aS'/home/srwe/work/project/backstage/apks/com.astrovicapp.bigDaysLite'
p868
aS'/home/srwe/work/project/backstage/apks/de.gmx.mobile.android.mail_v1.58.6'
p869
aS'/home/srwe/work/project/backstage/apks/com.google.android.launcher_v1.1.0.1167994'
p870
aS'/home/srwe/work/project/backstage/apks/net.psyberia.offlinemaps_v1.18c'
p871
aS'/home/srwe/work/project/backstage/apks/cz.aponia.bor3.offlinemaps'
p872
aS'/home/srwe/work/project/backstage/apks/com.scee.psxandroid'
p873
aS'/home/srwe/work/project/backstage/apks/com.jb.gokeyboard_v2.13'
p874
aS'/home/srwe/work/project/backstage/apks/com.random.chat.app'
p875
aS'/home/srwe/work/project/backstage/apks/com.twitter.android_v5.24.0'
p876
aS'/home/srwe/work/project/backstage/apks/com.netbiscuits.kicker_v3.2.3'
p877
aS'/home/srwe/work/project/backstage/apks/com.farproc.wifi.connecter'
p878
aS'/home/srwe/work/project/backstage/apks/com.simplemobiletools.camera_43'
p879
aS'/home/srwe/work/project/backstage/apks/com.wetter.androidclient_v1.4.9.1'
p880
aS'/home/srwe/work/project/backstage/apks/com.google.earth_v7.1.3.1255'
p881
aS'/home/srwe/work/project/backstage/apks/com.knuddels.android'
p882
aS'/home/srwe/work/project/backstage/apks/com.devexpert.weather_v4.5.2'
p883
aS'/home/srwe/work/project/backstage/apks/com.myfitnesspal.android'
p884
aS'/home/srwe/work/project/backstage/apks/de.hafas.android.db_v15.04.p06.00'
p885
aS'/home/srwe/work/project/backstage/apks/de.pappermint.notfallsani_v1.2.1'
p886
aS'/home/srwe/work/project/backstage/apks/net.zedge.android'
p887
aS'/home/srwe/work/project/backstage/apks/com.levelup.brightweather_v1.05'
p888
aS'/home/srwe/work/project/backstage/apks/com.duolingo'
p889
aS'/home/srwe/work/project/backstage/apks/de.spiegel.android.app.spon'
p890
aS'/home/srwe/work/project/backstage/apks/com.evgit.sochi2014olympics_v1.9.4'
p891
aS'/home/srwe/work/project/backstage/apks/de.bayercropscience'
p892
aS'/home/srwe/work/project/backstage/apks/com.g8n8.pregnancytracker'
p893
aS'/home/srwe/work/project/backstage/apks/com.oldguide.inter.tipstekken'
p894
aS'/home/srwe/work/project/backstage/apks/com.ebay.mobile'
p895
aS'/home/srwe/work/project/backstage/apks/de.k3b.android.androFotoFinder_30'
p896
aS'/home/srwe/work/project/backstage/apks/com.lumoslabs.lumosity_v1.0.109'
p897
aS'/home/srwe/work/project/backstage/apks/com.ng.dailynews_v1.13'
p898
aS'/home/srwe/work/project/backstage/apks/com.quvideo.xiaoying'
p899
aS'/home/srwe/work/project/backstage/apks/com.mixvibes.crossdjfree_v1.4.6'
p900
aS'/home/srwe/work/project/backstage/apks/com.babbel.mobile.android.en_v4.3.3'
p901
aS'/home/srwe/work/project/backstage/apks/com.arcsoft.perfect365'
p902
aS'/home/srwe/work/project/backstage/apks/com.netbiscuits.bild.android_v3.5.6'
p903
aS'/home/srwe/work/project/backstage/apks/arlind.Shqip_v2.0'
p904
aS'/home/srwe/work/project/backstage/apks/de.is24.android_v4.6.2'
p905
aS'/home/srwe/work/project/backstage/apks/com.adobe.reader_v11.5.0.1'
p906
aS'/home/srwe/work/project/backstage/apks/com.whatsapp.wallpaper_v2'
p907
aS'/home/srwe/work/project/backstage/apks/ch.threema.qrscannerplugin_v1.1'
p908
aS'/home/srwe/work/project/backstage/apks/com.fashion.tattoo.name.my.photo.editor'
p909
aS'/home/srwe/work/project/backstage/apks/com.girlym.beautifulgirlimages'
p910
aS'/home/srwe/work/project/backstage/apks/arity.calculator_27'
p911
aS'/home/srwe/work/project/backstage/apks/de.dasoertliche.android_v3.11'
p912
aS'/home/srwe/work/project/backstage/apks/mbinc12.mb32b'
p913
aS'/home/srwe/work/project/backstage/apks/com.ufo.disease'
p914
aS'/home/srwe/work/project/backstage/apks/com.trivago_v1.9.2'
p915
aS'/home/srwe/work/project/backstage/apks/de.zeit.online_v1.1'
p916
aS'/home/srwe/work/project/backstage/apks/com.babycenter.pregnancytracker'
p917
aS'/home/srwe/work/project/backstage/apks/com.AnatomyLearning.Anatomy3DViewer3_v1.0'
p918
aS'/home/srwe/work/project/backstage/apks/de.blitzer_v2.7.4'
p919
aS'/home/srwe/work/project/backstage/apks/de.aid.nuetzlinge'
p920
aS'/home/srwe/work/project/backstage/apks/com.rtli.clipfish_v3.2'
p921
aS'/home/srwe/work/project/backstage/apks/com.surpax.ledflashlight.panel'
p922
aS'/home/srwe/work/project/backstage/apks/media.music.musicplayer.mp3player'
p923
aS'/home/srwe/work/project/backstage/apks/com.dianxinos.dxbs_v3.8.5'
p924
aS'/home/srwe/work/project/backstage/apks/com.jb.zcamera'
p925
aS'/home/srwe/work/project/backstage/apks/de.wortundbildverlag.mobil.apotheke_v5.1.1'
p926
aS'/home/srwe/work/project/backstage/apks/org.leo.android.dict_v5.3'
p927
aS'/home/srwe/work/project/backstage/apks/de.dfbmedien.FussballDE'
p928
aS'/home/srwe/work/project/backstage/apks/com.bookmark.money_vandroid-2.3.1'
p929
aS'/home/srwe/work/project/backstage/apks/com.github.axet.callrecorder_87'
p930
aS'/home/srwe/work/project/backstage/apks/com.google.android.keep_v2.3.02'
p931
aS'/home/srwe/work/project/backstage/apks/com.gau.go.launcherex.gowidget.weatherwidget'
p932
aS'/home/srwe/work/project/backstage/apks/com.liwenwen20131497.christmas_v2.1'
p933
aS'/home/srwe/work/project/backstage/apks/com.netflix.mediaclient'
p934
aS'/home/srwe/work/project/backstage/apks/com.outfit7.talkingangelafree_v2.2'
p935
aS'/home/srwe/work/project/backstage/apks/animaonline.android.wikiexplorer_v1.5.5'
p936
aS'/home/srwe/work/project/backstage/apks/pr0gram3r72.ClashOfClans_Map_v1'
p937
aS'/home/srwe/work/project/backstage/apks/com.devuni.flashlight_v5.1.5'
p938
aS'/home/srwe/work/project/backstage/apks/de.lineas.lit.ntv.android_v4.0.3'
p939
aS'/home/srwe/work/project/backstage/apks/com.girly.newwallpaper'
p940
aS'/home/srwe/work/project/backstage/apks/org.ametro_40'
p941
aS'/home/srwe/work/project/backstage/apks/com.apps.tomlinson.thefut17draftsimulator'
p942
aS'/home/srwe/work/project/backstage/apks/de.mobile.android.app'
p943
aS'/home/srwe/work/project/backstage/apks/com.rhmsoft.fm_v1.17.0'
p944
aS'/home/srwe/work/project/backstage/apks/com.baviux.pillreminder'
p945
aS'/home/srwe/work/project/backstage/apks/de.wetteronline.wetterapp_v2.3.3'
p946
aS'/home/srwe/work/project/backstage/apks/com.mapfactor.navigator_v1.3.24'
p947
aS'/home/srwe/work/project/backstage/apks/com.skype.raider'
p948
aS'/home/srwe/work/project/backstage/apks/learn.to.draw.glow.animal'
p949
aS'/home/srwe/work/project/backstage/apks/com.onemanwithcameralomo_v3.8.2'
p950
aS'/home/srwe/work/project/backstage/apks/learn.to.draw.glow.cartoon'
p951
aS'/home/srwe/work/project/backstage/apks/com.kaspersky.qrscanner'
p952
aS'/home/srwe/work/project/backstage/apks/com.tinder_v2.2.3'
p953
aS'/home/srwe/work/project/backstage/apks/cz.skodaauto.smartgate'
p954
aS'/home/srwe/work/project/backstage/apks/com.joeware.android.gpulumera'
p955
aS'/home/srwe/work/project/backstage/apks/com.apusapps.launcher_v1.4.0'
p956
aS'/home/srwe/work/project/backstage/apks/com.piriform.ccleaner'
p957
aS'/home/srwe/work/project/backstage/apks/com.cleanmaster.mguard'
p958
aS'/home/srwe/work/project/backstage/apks/de.schildbach.oeffi_v8.67'
p959
aS'/home/srwe/work/project/backstage/apks/codeadore.textgram'
p960
aS'/home/srwe/work/project/backstage/apks/com.doublerouble.counter'
p961
aS'/home/srwe/work/project/backstage/apks/com.vervigroup.deadline2do_v1.105'
p962
aS'/home/srwe/work/project/backstage/apks/com.frogsparks.mytrails_v1.4.5'
p963
aS'/home/srwe/work/project/backstage/apks/com.eabdrazakov.photomontage'
p964
aS'/home/srwe/work/project/backstage/apks/com.popularapp.periodcalendar'
p965
aS'/home/srwe/work/project/backstage/apks/com.google.android.apps.translate_v3.0.12'
p966
aS'/home/srwe/work/project/backstage/apks/com.futurebits.instamessage.free'
p967
aS'/home/srwe/work/project/backstage/apks/com.duolingo_v2.7.2'
p968
aS'/home/srwe/work/project/backstage/apks/com.ht.manga.gpanda_v1.3.4'
p969
aS'/home/srwe/work/project/backstage/apks/com.waze'
p970
aS'/home/srwe/work/project/backstage/apks/com.megalol.quotes_v1.42'
p971
aS'/home/srwe/work/project/backstage/apks/com.facebook.katana_v28.0.0.20.16'
p972
aS'/home/srwe/work/project/backstage/apks/com.ifap.arzneiaktuell_v2.2.3'
p973
aS'/home/srwe/work/project/backstage/apks/com.simplemobiletools.calendar_80'
p974
aS'/home/srwe/work/project/backstage/apks/com.deutschland.autoteile'
p975
aS'/home/srwe/work/project/backstage/apks/com.aoemoji.keyboard.plugin.emojistyle.osemoji'
p976
aS'/home/srwe/work/project/backstage/apks/com.geekslab.qrbarcodescanner.pro'
p977
aS'/home/srwe/work/project/backstage/apks/com.CartoonAvatar.PhotoMaker_v1.1'
p978
aS'/home/srwe/work/project/backstage/apks/com.sarnavsky.pasz.nightlight'
p979
aS'/home/srwe/work/project/backstage/apks/de.braverstudent.nichtlachen'
p980
aS'/home/srwe/work/project/backstage/apks/com.runtastic.android_v5.2.1'
p981
aS'/home/srwe/work/project/backstage/apks/com.rtlinteractive.rtlnow_v1.2.2'
p982
aS'/home/srwe/work/project/backstage/apks/com.pipcamera.activity'
p983
aS'/home/srwe/work/project/backstage/apks/com.zdf.android.mediathek_v2.3.1'
p984
aS'/home/srwe/work/project/backstage/apks/com.tripadvisor.tripadvisor'
p985
aS'/home/srwe/work/project/backstage/apks/mg.locations.track5'
p986
aS'/home/srwe/work/project/backstage/apks/com.futbin'
p987
aS'/home/srwe/work/project/backstage/apks/com.dougkeen.bart_33'
p988
aS'/home/srwe/work/project/backstage/apks/me.dbarnett.acastus_11'
p989
aS'/home/srwe/work/project/backstage/apks/com.majeur.applicationsinfo_7'
p990
aS'/home/srwe/work/project/backstage/apks/com.paypal.android.p2pmobile_v5.11.3'
p991
aS'/home/srwe/work/project/backstage/apks/com.ebay.mobile_v2.8.2.1'
p992
aS'/home/srwe/work/project/backstage/apks/com.jrtstudio.music'
p993
aS'/home/srwe/work/project/backstage/apks/de.nichtlustig.android_v1.0.6'
p994
aS'/home/srwe/work/project/backstage/apks/cz.aponia.bor3'
p995
aS'/home/srwe/work/project/backstage/apks/com.aviary.android.feather.plugins.stickers.free_stickers_v1.0'
p996
aS'/home/srwe/work/project/backstage/apks/de.arbeitsagentur.jobboerse'
p997
aS'/home/srwe/work/project/backstage/apks/com.astrovicapp.bigDaysLite'
p998
aS'/home/srwe/work/project/backstage/apks/de.gmx.mobile.android.mail_v1.58.6'
p999
aS'/home/srwe/work/project/backstage/apks/com.google.android.launcher_v1.1.0.1167994'
p1000
aS'/home/srwe/work/project/backstage/apks/net.psyberia.offlinemaps_v1.18c'
p1001
aS'/home/srwe/work/project/backstage/apks/cz.aponia.bor3.offlinemaps'
p1002
aS'/home/srwe/work/project/backstage/apks/com.scee.psxandroid'
p1003
aS'/home/srwe/work/project/backstage/apks/com.jb.gokeyboard_v2.13'
p1004
aS'/home/srwe/work/project/backstage/apks/com.random.chat.app'
p1005
aS'/home/srwe/work/project/backstage/apks/com.twitter.android_v5.24.0'
p1006
aS'/home/srwe/work/project/backstage/apks/com.netbiscuits.kicker_v3.2.3'
p1007
aS'/home/srwe/work/project/backstage/apks/com.farproc.wifi.connecter'
p1008
aS'/home/srwe/work/project/backstage/apks/com.simplemobiletools.camera_43'
p1009
aS'/home/srwe/work/project/backstage/apks/com.wetter.androidclient_v1.4.9.1'
p1010
aS'/home/srwe/work/project/backstage/apks/com.google.earth_v7.1.3.1255'
p1011
aS'/home/srwe/work/project/backstage/apks/com.knuddels.android'
p1012
aS'/home/srwe/work/project/backstage/apks/com.devexpert.weather_v4.5.2'
p1013
aS'/home/srwe/work/project/backstage/apks/com.myfitnesspal.android'
p1014
aS'/home/srwe/work/project/backstage/apks/de.hafas.android.db_v15.04.p06.00'
p1015
aS'/home/srwe/work/project/backstage/apks/de.pappermint.notfallsani_v1.2.1'
p1016
aS'/home/srwe/work/project/backstage/apks/net.zedge.android'
p1017
aS'/home/srwe/work/project/backstage/apks/com.levelup.brightweather_v1.05'
p1018
aS'/home/srwe/work/project/backstage/apks/com.duolingo'
p1019
aS'/home/srwe/work/project/backstage/apks/de.spiegel.android.app.spon'
p1020
aS'/home/srwe/work/project/backstage/apks/com.evgit.sochi2014olympics_v1.9.4'
p1021
aS'/home/srwe/work/project/backstage/apks/de.bayercropscience'
p1022
aS'/home/srwe/work/project/backstage/apks/com.g8n8.pregnancytracker'
p1023
aS'/home/srwe/work/project/backstage/apks/com.oldguide.inter.tipstekken'
p1024
aS'/home/srwe/work/project/backstage/apks/com.ebay.mobile'
p1025
aS'/home/srwe/work/project/backstage/apks/de.k3b.android.androFotoFinder_30'
p1026
aS'/home/srwe/work/project/backstage/apks/com.lumoslabs.lumosity_v1.0.109'
p1027
aS'/home/srwe/work/project/backstage/apks/com.ng.dailynews_v1.13'
p1028
aS'/home/srwe/work/project/backstage/apks/com.quvideo.xiaoying'
p1029
aS'/home/srwe/work/project/backstage/apks/com.mixvibes.crossdjfree_v1.4.6'
p1030
aS'/home/srwe/work/project/backstage/apks/com.babbel.mobile.android.en_v4.3.3'
p1031
aS'/home/srwe/work/project/backstage/apks/com.arcsoft.perfect365'
p1032
aS'/home/srwe/work/project/backstage/apks/com.netbiscuits.bild.android_v3.5.6'
p1033
aS'/home/srwe/work/project/backstage/apks/arlind.Shqip_v2.0'
p1034
aS'/home/srwe/work/project/backstage/apks/de.is24.android_v4.6.2'
p1035
aS'/home/srwe/work/project/backstage/apks/com.adobe.reader_v11.5.0.1'
p1036
aS'/home/srwe/work/project/backstage/apks/com.whatsapp.wallpaper_v2'
p1037
aS'/home/srwe/work/project/backstage/apks/ch.threema.qrscannerplugin_v1.1'
p1038
aS'/home/srwe/work/project/backstage/apks/com.fashion.tattoo.name.my.photo.editor'
p1039
aS'/home/srwe/work/project/backstage/apks/com.girlym.beautifulgirlimages'
p1040
aS'/home/srwe/work/project/backstage/apks/arity.calculator_27'
p1041
aS'/home/srwe/work/project/backstage/apks/de.dasoertliche.android_v3.11'
p1042
aS'/home/srwe/work/project/backstage/apks/mbinc12.mb32b'
p1043
aS'/home/srwe/work/project/backstage/apks/com.ufo.disease'
p1044
aS'/home/srwe/work/project/backstage/apks/com.trivago_v1.9.2'
p1045
aS'/home/srwe/work/project/backstage/apks/de.zeit.online_v1.1'
p1046
aS'/home/srwe/work/project/backstage/apks/com.babycenter.pregnancytracker'
p1047
aS'/home/srwe/work/project/backstage/apks/mobi.infolife.ezweather.widget.gcolour'
p1048
aS'/home/srwe/work/project/backstage/apks/com.spotify.music'
p1049
aS'/home/srwe/work/project/backstage/apks/de.betaapps.bruttonetto'
p1050
aS'/home/srwe/work/project/backstage/apks/com.shazam.android_v4.9.1-14091210-c329e9a'
p1051
aS'/home/srwe/work/project/backstage/apks/mobi.infolife.ezweather.widget.figures'
p1052
aS'/home/srwe/work/project/backstage/apks/com.zentertain.photoeditor_v1.11'
p1053
aS'/home/srwe/work/project/backstage/apks/com.aviary.android.feather.plugins.borders.free_v1.1'
p1054
aS'/home/srwe/work/project/backstage/apks/com.ivuu'
p1055
aS'/home/srwe/work/project/backstage/apks/com.picsart.studio'
p1056
aS'/home/srwe/work/project/backstage/apks/de.autodoc.gmbh'
p1057
aS'/home/srwe/work/project/backstage/apks/com.contextlogic.wish_v3.10.5'
p1058
aS'/home/srwe/work/project/backstage/apks/com.yed.sexyvideostreaming'
p1059
aS'/home/srwe/work/project/backstage/apks/com.qisiemoji.inputmethod_v2.4'
p1060
aS'/home/srwe/work/project/backstage/apks/ch.bailu.aat_18'
p1061
aS'/home/srwe/work/project/backstage/apks/com.oxylane.android.decathlon'
p1062
aS'/home/srwe/work/project/backstage/apks/com.radio.fmradio'
p1063
aS'/home/srwe/work/project/backstage/apks/com.unicef.maranetwork_v1.1'
p1064
aS'/home/srwe/work/project/backstage/apks/com.ebayschnppchen_v1.31'
p1065
aS'/home/srwe/work/project/backstage/apks/coml.macromassive.babytooth.app'
p1066
aS'/home/srwe/work/project/backstage/apks/com.phonegap.wgtguide'
p1067
aS'/home/srwe/work/project/backstage/apks/com.almalence.opencam_v3.24'
p1068
aS'/home/srwe/work/project/backstage/apks/com.androidwasabi.livewallpaper.g3_v1.0.2'
p1069
aS'/home/srwe/work/project/backstage/apks/com.naver.linewebtoon_v1.0.6'
p1070
aS'/home/srwe/work/project/backstage/apks/cn.wps.moffice_eng_v6.1.1'
p1071
aS'/home/srwe/work/project/backstage/apks/con.example.flashplayer.appi'
p1072
aS'/home/srwe/work/project/backstage/apks/org.youcorp.matchschedule.eu_v1.9'
p1073
aS'/home/srwe/work/project/backstage/apks/com.ben.lianmeng_v1.0'
p1074
aS'/home/srwe/work/project/backstage/apks/com.dozingcatsoftware.cameratimer_6'
p1075
aS'/home/srwe/work/project/backstage/apks/com.avira.android_v3.5'
p1076
aS'/home/srwe/work/project/backstage/apks/menion.android.locus'
p1077
aS'/home/srwe/work/project/backstage/apks/com.wetter.androidclient_v2.3.1'
p1078
aS'/home/srwe/work/project/backstage/apks/de.pixelhouse'
p1079
aS'/home/srwe/work/project/backstage/apks/com.deutschland.gebrauchtwagen'
p1080
aS'/home/srwe/work/project/backstage/apks/com.riffsy.FBMGIFApp'
p1081
aS'/home/srwe/work/project/backstage/apks/com.gamesdev.cartoon'
p1082
aS'/home/srwe/work/project/backstage/apks/com.dynamixsoftware.printhand_v6.1.4'
p1083
aS'/home/srwe/work/project/backstage/apks/com.picsart.animate'
p1084
aS'/home/srwe/work/project/backstage/apks/de.appfiction.yocutiegoogle'
p1085
aS'/home/srwe/work/project/backstage/apks/net.lovoo.android_v2.5.1'
p1086
aS'/home/srwe/work/project/backstage/apks/de.digame.esc_v2.1.1'
p1087
aS'/home/srwe/work/project/backstage/apks/dating.app.chat.flirt.wgbcv'
p1088
aS'/home/srwe/work/project/backstage/apks/com.samremote.view'
p1089
aS'/home/srwe/work/project/backstage/apks/de.tipicotraining_v4.0'
p1090
aS'/home/srwe/work/project/backstage/apks/com.jdpapps.textt1'
p1091
aS'/home/srwe/work/project/backstage/apks/com.vertaler.deen'
p1092
aS'/home/srwe/work/project/backstage/apks/com.contextlogic.geek_v1.1.1'
p1093
aS'/home/srwe/work/project/backstage/apks/com.mattia.videos.manager_v1.01'
p1094
aS'/home/srwe/work/project/backstage/apks/de.degener.click_and_learn'
p1095
aS'/home/srwe/work/project/backstage/apks/com.audible.application'
p1096
aS'/home/srwe/work/project/backstage/apks/de.cellular.focus'
p1097
aS'/home/srwe/work/project/backstage/apks/com.kms.free'
p1098
aS'/home/srwe/work/project/backstage/apks/com.facebook.orca_v12.0.0.21.14'
p1099
aS'/home/srwe/work/project/backstage/apks/de.aldiNord.android'
p1100
aS'/home/srwe/work/project/backstage/apks/com.adermark.forestpondfree_v1.06'
p1101
aS'/home/srwe/work/project/backstage/apks/com.snapchat.android_v5.0.34.6'
p1102
aS'/home/srwe/work/project/backstage/apks/com.entersekt.authapp.dkb'
p1103
aS'/home/srwe/work/project/backstage/apks/com.ebay.kleinanzeigen_v5.0.3'
p1104
aS'/home/srwe/work/project/backstage/apks/com.facebook.katana_v16.0.0.20.15'
p1105
aS'/home/srwe/work/project/backstage/apks/deezer.android.app_v4.4.3.14'
p1106
aS'/home/srwe/work/project/backstage/apks/com.starfinanz.mobile.android.dkbpushtan'
p1107
aS'/home/srwe/work/project/backstage/apks/com.runtastic.android.pedometer.lite_v1.4'
p1108
aS'/home/srwe/work/project/backstage/apks/com.infraware.office.link_v6.0.9'
p1109
aS'/home/srwe/work/project/backstage/apks/de.prosiebensat1digital.seventv_v1.2'
p1110
aS'/home/srwe/work/project/backstage/apks/com.steam.photoeditor'
p1111
aS'/home/srwe/work/project/backstage/apks/com.indeed.android.jobsearch'
p1112
aS'/home/srwe/work/project/backstage/apks/air.com.demute.TaoMix_v1.1.13'
p1113
aS'/home/srwe/work/project/backstage/apks/ru.tubin.bp_v1.43'
p1114
aS'/home/srwe/work/project/backstage/apks/baby.com.ToysToSee'
p1115
aS'/home/srwe/work/project/backstage/apks/com.miantan.myoface_v3.3.0'
p1116
aS'/home/srwe/work/project/backstage/apks/de.avm.android.wlanapp'
p1117
aS'/home/srwe/work/project/backstage/apks/baby.com.FunToyzCollector'
p1118
aS'/home/srwe/work/project/backstage/apks/de.apps.simple.tmrezeptsammlung'
p1119
aS'/home/srwe/work/project/backstage/apks/com.antivirus_v4.1.2'
p1120
aS'/home/srwe/work/project/backstage/apks/com.sgiggle.production'
p1121
aS'/home/srwe/work/project/backstage/apks/com.wondershare.powerselfie_v1.0.2'
p1122
aS'/home/srwe/work/project/backstage/apks/com.whatsapp'
p1123
aS'/home/srwe/work/project/backstage/apks/com.audioguidia.myweather_v1.8.4'
p1124
aS'/home/srwe/work/project/backstage/apks/com.slick.clearyourphone'
p1125
aS'/home/srwe/work/project/backstage/apks/com.waplog.social'
p1126
aS'/home/srwe/work/project/backstage/apks/com.shpock.android_v2.4.5'
p1127
aS'/home/srwe/work/project/backstage/apks/de.msg.qdcheats_v1.2.1'
p1128
aS'/home/srwe/work/project/backstage/apks/de.mcdonalds.mcdonaldsinfoapp_v1.4.0.1'
p1129
aS'/home/srwe/work/project/backstage/apks/org.videolan.vlc.betav7neon_v0.9.9'
p1130
aS'/home/srwe/work/project/backstage/apks/com.instagram.android_v6.16.1'
p1131
aS'/home/srwe/work/project/backstage/apks/com.amazon.mShop.android.shopping'
p1132
aS'/home/srwe/work/project/backstage/apks/com.eisterhues_media_2'
p1133
aS'/home/srwe/work/project/backstage/apks/com.zlamanit.blood.pressure'
p1134
aS'/home/srwe/work/project/backstage/apks/com.ptvag.android.adacgasprices_v1.3.3'
p1135
aS'/home/srwe/work/project/backstage/apks/com.viber.voip_v4.3.3.67'
p1136
aS'/home/srwe/work/project/backstage/apks/com.shareitagain.mymoodsmiley'
p1137
aS'/home/srwe/work/project/backstage/apks/com.masarat.salati'
p1138
aS'/home/srwe/work/project/backstage/apks/com.dsi.ant.plugins.antplus_v3.1.0'
p1139
aS'/home/srwe/work/project/backstage/apks/de.meinfernbus_v1.5'
p1140
a.